
STM32ProjectForLab4.elf:     file format elf32-littlearm

Sections:
Idx Name          Size      VMA       LMA       File off  Algn
  0 .isr_vector   0000010c  08000000  08000000  00010000  2**0
                  CONTENTS, ALLOC, LOAD, READONLY, DATA
  1 .text         00001d14  0800010c  0800010c  0001010c  2**2
                  CONTENTS, ALLOC, LOAD, READONLY, CODE
  2 .rodata       00000024  08001e20  08001e20  00011e20  2**2
                  CONTENTS, ALLOC, LOAD, READONLY, DATA
  3 .ARM.extab    00000000  08001e44  08001e44  0002000c  2**0
                  CONTENTS
  4 .ARM          00000000  08001e44  08001e44  0002000c  2**0
                  CONTENTS
  5 .preinit_array 00000000  08001e44  08001e44  0002000c  2**0
                  CONTENTS, ALLOC, LOAD, DATA
  6 .init_array   00000004  08001e44  08001e44  00011e44  2**2
                  CONTENTS, ALLOC, LOAD, DATA
  7 .fini_array   00000004  08001e48  08001e48  00011e48  2**2
                  CONTENTS, ALLOC, LOAD, DATA
  8 .data         0000000c  20000000  08001e4c  00020000  2**2
                  CONTENTS, ALLOC, LOAD, DATA
  9 .bss          00000388  2000000c  08001e58  0002000c  2**2
                  ALLOC
 10 ._user_heap_stack 00000604  20000394  08001e58  00020394  2**0
                  ALLOC
 11 .ARM.attributes 00000029  00000000  00000000  0002000c  2**0
                  CONTENTS, READONLY
 12 .debug_info   000083e5  00000000  00000000  00020035  2**0
                  CONTENTS, READONLY, DEBUGGING, OCTETS
 13 .debug_abbrev 00001706  00000000  00000000  0002841a  2**0
                  CONTENTS, READONLY, DEBUGGING, OCTETS
 14 .debug_aranges 000009b0  00000000  00000000  00029b20  2**3
                  CONTENTS, READONLY, DEBUGGING, OCTETS
 15 .debug_ranges 000008e8  00000000  00000000  0002a4d0  2**3
                  CONTENTS, READONLY, DEBUGGING, OCTETS
 16 .debug_macro  00016595  00000000  00000000  0002adb8  2**0
                  CONTENTS, READONLY, DEBUGGING, OCTETS
 17 .debug_line   0000a10d  00000000  00000000  0004134d  2**0
                  CONTENTS, READONLY, DEBUGGING, OCTETS
 18 .debug_str    00081e79  00000000  00000000  0004b45a  2**0
                  CONTENTS, READONLY, DEBUGGING, OCTETS
 19 .comment      00000050  00000000  00000000  000cd2d3  2**0
                  CONTENTS, READONLY
 20 .debug_frame  00002734  00000000  00000000  000cd324  2**2
                  CONTENTS, READONLY, DEBUGGING, OCTETS

Disassembly of section .text:

0800010c <__do_global_dtors_aux>:
 800010c:	b510      	push	{r4, lr}
 800010e:	4c05      	ldr	r4, [pc, #20]	; (8000124 <__do_global_dtors_aux+0x18>)
 8000110:	7823      	ldrb	r3, [r4, #0]
 8000112:	b933      	cbnz	r3, 8000122 <__do_global_dtors_aux+0x16>
 8000114:	4b04      	ldr	r3, [pc, #16]	; (8000128 <__do_global_dtors_aux+0x1c>)
 8000116:	b113      	cbz	r3, 800011e <__do_global_dtors_aux+0x12>
 8000118:	4804      	ldr	r0, [pc, #16]	; (800012c <__do_global_dtors_aux+0x20>)
 800011a:	f3af 8000 	nop.w
 800011e:	2301      	movs	r3, #1
 8000120:	7023      	strb	r3, [r4, #0]
 8000122:	bd10      	pop	{r4, pc}
 8000124:	2000000c 	.word	0x2000000c
 8000128:	00000000 	.word	0x00000000
 800012c:	08001e08 	.word	0x08001e08

08000130 <frame_dummy>:
 8000130:	b508      	push	{r3, lr}
 8000132:	4b03      	ldr	r3, [pc, #12]	; (8000140 <frame_dummy+0x10>)
 8000134:	b11b      	cbz	r3, 800013e <frame_dummy+0xe>
 8000136:	4903      	ldr	r1, [pc, #12]	; (8000144 <frame_dummy+0x14>)
 8000138:	4803      	ldr	r0, [pc, #12]	; (8000148 <frame_dummy+0x18>)
 800013a:	f3af 8000 	nop.w
 800013e:	bd08      	pop	{r3, pc}
 8000140:	00000000 	.word	0x00000000
 8000144:	20000010 	.word	0x20000010
 8000148:	08001e08 	.word	0x08001e08

0800014c <BlinkRedLed>:
 *      Author: Huy
 */
#include "led.h"

void BlinkRedLed(void)
{
 800014c:	b580      	push	{r7, lr}
 800014e:	af00      	add	r7, sp, #0
	HAL_GPIO_TogglePin(LED_RED_GPIO_Port, LED_RED_Pin);
 8000150:	2120      	movs	r1, #32
 8000152:	4802      	ldr	r0, [pc, #8]	; (800015c <BlinkRedLed+0x10>)
 8000154:	f000 fe4c 	bl	8000df0 <HAL_GPIO_TogglePin>
}
 8000158:	bf00      	nop
 800015a:	bd80      	pop	{r7, pc}
 800015c:	40010800 	.word	0x40010800

08000160 <BlinkYellowLed>:

void BlinkYellowLed(void)
{
 8000160:	b580      	push	{r7, lr}
 8000162:	af00      	add	r7, sp, #0
	HAL_GPIO_TogglePin(LED_YELLOW_GPIO_Port, LED_YELLOW_Pin);
 8000164:	2140      	movs	r1, #64	; 0x40
 8000166:	4802      	ldr	r0, [pc, #8]	; (8000170 <BlinkYellowLed+0x10>)
 8000168:	f000 fe42 	bl	8000df0 <HAL_GPIO_TogglePin>
}
 800016c:	bf00      	nop
 800016e:	bd80      	pop	{r7, pc}
 8000170:	40010800 	.word	0x40010800

08000174 <BlinkGreenLed>:

void BlinkGreenLed(void)
{
 8000174:	b580      	push	{r7, lr}
 8000176:	af00      	add	r7, sp, #0
	HAL_GPIO_TogglePin(LED_GREEN_GPIO_Port, LED_GREEN_Pin);
 8000178:	2180      	movs	r1, #128	; 0x80
 800017a:	4802      	ldr	r0, [pc, #8]	; (8000184 <BlinkGreenLed+0x10>)
 800017c:	f000 fe38 	bl	8000df0 <HAL_GPIO_TogglePin>
}
 8000180:	bf00      	nop
 8000182:	bd80      	pop	{r7, pc}
 8000184:	40010800 	.word	0x40010800

08000188 <BlinkBlueLed>:

void BlinkBlueLed(void)
{
 8000188:	b580      	push	{r7, lr}
 800018a:	af00      	add	r7, sp, #0
	HAL_GPIO_TogglePin(LED_BLUE_GPIO_Port, LED_BLUE_Pin);
 800018c:	f44f 7180 	mov.w	r1, #256	; 0x100
 8000190:	4802      	ldr	r0, [pc, #8]	; (800019c <BlinkBlueLed+0x14>)
 8000192:	f000 fe2d 	bl	8000df0 <HAL_GPIO_TogglePin>
}
 8000196:	bf00      	nop
 8000198:	bd80      	pop	{r7, pc}
 800019a:	bf00      	nop
 800019c:	40010800 	.word	0x40010800

080001a0 <BlinkOrangeLed>:

void BlinkOrangeLed(void)
{
 80001a0:	b580      	push	{r7, lr}
 80001a2:	af00      	add	r7, sp, #0
	HAL_GPIO_TogglePin(LED_ORANGE_GPIO_Port, LED_ORANGE_Pin);
 80001a4:	f44f 7100 	mov.w	r1, #512	; 0x200
 80001a8:	4802      	ldr	r0, [pc, #8]	; (80001b4 <BlinkOrangeLed+0x14>)
 80001aa:	f000 fe21 	bl	8000df0 <HAL_GPIO_TogglePin>
}
 80001ae:	bf00      	nop
 80001b0:	bd80      	pop	{r7, pc}
 80001b2:	bf00      	nop
 80001b4:	40010800 	.word	0x40010800

080001b8 <main>:
/**
  * @brief  The application entry point.
  * @retval int
  */
int main(void)
{
 80001b8:	b580      	push	{r7, lr}
 80001ba:	af00      	add	r7, sp, #0
  /* USER CODE END 1 */

  /* MCU Configuration--------------------------------------------------------*/

  /* Reset of all peripherals, Initializes the Flash interface and the Systick. */
  HAL_Init();
 80001bc:	f000 fb14 	bl	80007e8 <HAL_Init>
  /* USER CODE BEGIN Init */

  /* USER CODE END Init */

  /* Configure the system clock */
  SystemClock_Config();
 80001c0:	f000 f836 	bl	8000230 <SystemClock_Config>
  /* USER CODE BEGIN SysInit */

  /* USER CODE END SysInit */

  /* Initialize all configured peripherals */
  MX_GPIO_Init();
 80001c4:	f000 f8bc 	bl	8000340 <MX_GPIO_Init>
  MX_TIM2_Init();
 80001c8:	f000 f86e 	bl	80002a8 <MX_TIM2_Init>
  /* USER CODE BEGIN 2 */
  HAL_TIM_Base_Start_IT(& htim2); /*Function to initialize the timer*/
 80001cc:	4812      	ldr	r0, [pc, #72]	; (8000218 <main+0x60>)
 80001ce:	f001 fa57 	bl	8001680 <HAL_TIM_Base_Start_IT>
  /* USER CODE END 2 */

  /* Infinite loop */
  /* USER CODE BEGIN WHILE */
  SCH_Init();
 80001d2:	f000 f8f8 	bl	80003c6 <SCH_Init>
  /*Blink red led every 0.5 second*/
  SCH_Add_Task(BlinkRedLed, 0, 500);
 80001d6:	f44f 72fa 	mov.w	r2, #500	; 0x1f4
 80001da:	2100      	movs	r1, #0
 80001dc:	480f      	ldr	r0, [pc, #60]	; (800021c <main+0x64>)
 80001de:	f000 f977 	bl	80004d0 <SCH_Add_Task>
  /*Blink yellow led every 1 second*/
  SCH_Add_Task(BlinkYellowLed, 10, 1000);
 80001e2:	f44f 727a 	mov.w	r2, #1000	; 0x3e8
 80001e6:	210a      	movs	r1, #10
 80001e8:	480d      	ldr	r0, [pc, #52]	; (8000220 <main+0x68>)
 80001ea:	f000 f971 	bl	80004d0 <SCH_Add_Task>
  /*Blink green led every 1.5 second*/
  SCH_Add_Task(BlinkGreenLed, 20, 1500);
 80001ee:	f240 52dc 	movw	r2, #1500	; 0x5dc
 80001f2:	2114      	movs	r1, #20
 80001f4:	480b      	ldr	r0, [pc, #44]	; (8000224 <main+0x6c>)
 80001f6:	f000 f96b 	bl	80004d0 <SCH_Add_Task>
  /*Blink blue led every 2 second*/
  SCH_Add_Task(BlinkBlueLed, 30, 2000);
 80001fa:	f44f 62fa 	mov.w	r2, #2000	; 0x7d0
 80001fe:	211e      	movs	r1, #30
 8000200:	4809      	ldr	r0, [pc, #36]	; (8000228 <main+0x70>)
 8000202:	f000 f965 	bl	80004d0 <SCH_Add_Task>
  /*Blin orange led every 2.5 second*/
  SCH_Add_Task(BlinkOrangeLed, 40, 2500);
 8000206:	f640 12c4 	movw	r2, #2500	; 0x9c4
 800020a:	2128      	movs	r1, #40	; 0x28
 800020c:	4807      	ldr	r0, [pc, #28]	; (800022c <main+0x74>)
 800020e:	f000 f95f 	bl	80004d0 <SCH_Add_Task>
  while (1)
  {
    /* USER CODE END WHILE */

    /* USER CODE BEGIN 3 */
	  SCH_Dispatch_Tasks();
 8000212:	f000 f9b5 	bl	8000580 <SCH_Dispatch_Tasks>
 8000216:	e7fc      	b.n	8000212 <main+0x5a>
 8000218:	20000028 	.word	0x20000028
 800021c:	0800014d 	.word	0x0800014d
 8000220:	08000161 	.word	0x08000161
 8000224:	08000175 	.word	0x08000175
 8000228:	08000189 	.word	0x08000189
 800022c:	080001a1 	.word	0x080001a1

08000230 <SystemClock_Config>:
/**
  * @brief System Clock Configuration
  * @retval None
  */
void SystemClock_Config(void)
{
 8000230:	b580      	push	{r7, lr}
 8000232:	b090      	sub	sp, #64	; 0x40
 8000234:	af00      	add	r7, sp, #0
  RCC_OscInitTypeDef RCC_OscInitStruct = {0};
 8000236:	f107 0318 	add.w	r3, r7, #24
 800023a:	2228      	movs	r2, #40	; 0x28
 800023c:	2100      	movs	r1, #0
 800023e:	4618      	mov	r0, r3
 8000240:	f001 fdda 	bl	8001df8 <memset>
  RCC_ClkInitTypeDef RCC_ClkInitStruct = {0};
 8000244:	1d3b      	adds	r3, r7, #4
 8000246:	2200      	movs	r2, #0
 8000248:	601a      	str	r2, [r3, #0]
 800024a:	605a      	str	r2, [r3, #4]
 800024c:	609a      	str	r2, [r3, #8]
 800024e:	60da      	str	r2, [r3, #12]
 8000250:	611a      	str	r2, [r3, #16]

  /** Initializes the RCC Oscillators according to the specified parameters
  * in the RCC_OscInitTypeDef structure.
  */
  RCC_OscInitStruct.OscillatorType = RCC_OSCILLATORTYPE_HSI;
 8000252:	2302      	movs	r3, #2
 8000254:	61bb      	str	r3, [r7, #24]
  RCC_OscInitStruct.HSIState = RCC_HSI_ON;
 8000256:	2301      	movs	r3, #1
 8000258:	62bb      	str	r3, [r7, #40]	; 0x28
  RCC_OscInitStruct.HSICalibrationValue = RCC_HSICALIBRATION_DEFAULT;
 800025a:	2310      	movs	r3, #16
 800025c:	62fb      	str	r3, [r7, #44]	; 0x2c
  RCC_OscInitStruct.PLL.PLLState = RCC_PLL_NONE;
 800025e:	2300      	movs	r3, #0
 8000260:	637b      	str	r3, [r7, #52]	; 0x34
  if (HAL_RCC_OscConfig(&RCC_OscInitStruct) != HAL_OK)
 8000262:	f107 0318 	add.w	r3, r7, #24
 8000266:	4618      	mov	r0, r3
 8000268:	f000 fddc 	bl	8000e24 <HAL_RCC_OscConfig>
 800026c:	4603      	mov	r3, r0
 800026e:	2b00      	cmp	r3, #0
 8000270:	d001      	beq.n	8000276 <SystemClock_Config+0x46>
  {
    Error_Handler();
 8000272:	f000 f8a3 	bl	80003bc <Error_Handler>
  }

  /** Initializes the CPU, AHB and APB buses clocks
  */
  RCC_ClkInitStruct.ClockType = RCC_CLOCKTYPE_HCLK|RCC_CLOCKTYPE_SYSCLK
 8000276:	230f      	movs	r3, #15
 8000278:	607b      	str	r3, [r7, #4]
                              |RCC_CLOCKTYPE_PCLK1|RCC_CLOCKTYPE_PCLK2;
  RCC_ClkInitStruct.SYSCLKSource = RCC_SYSCLKSOURCE_HSI;
 800027a:	2300      	movs	r3, #0
 800027c:	60bb      	str	r3, [r7, #8]
  RCC_ClkInitStruct.AHBCLKDivider = RCC_SYSCLK_DIV1;
 800027e:	2300      	movs	r3, #0
 8000280:	60fb      	str	r3, [r7, #12]
  RCC_ClkInitStruct.APB1CLKDivider = RCC_HCLK_DIV1;
 8000282:	2300      	movs	r3, #0
 8000284:	613b      	str	r3, [r7, #16]
  RCC_ClkInitStruct.APB2CLKDivider = RCC_HCLK_DIV1;
 8000286:	2300      	movs	r3, #0
 8000288:	617b      	str	r3, [r7, #20]

  if (HAL_RCC_ClockConfig(&RCC_ClkInitStruct, FLASH_LATENCY_0) != HAL_OK)
 800028a:	1d3b      	adds	r3, r7, #4
 800028c:	2100      	movs	r1, #0
 800028e:	4618      	mov	r0, r3
 8000290:	f001 f84a 	bl	8001328 <HAL_RCC_ClockConfig>
 8000294:	4603      	mov	r3, r0
 8000296:	2b00      	cmp	r3, #0
 8000298:	d001      	beq.n	800029e <SystemClock_Config+0x6e>
  {
    Error_Handler();
 800029a:	f000 f88f 	bl	80003bc <Error_Handler>
  }
}
 800029e:	bf00      	nop
 80002a0:	3740      	adds	r7, #64	; 0x40
 80002a2:	46bd      	mov	sp, r7
 80002a4:	bd80      	pop	{r7, pc}
	...

080002a8 <MX_TIM2_Init>:
  * @brief TIM2 Initialization Function
  * @param None
  * @retval None
  */
static void MX_TIM2_Init(void)
{
 80002a8:	b580      	push	{r7, lr}
 80002aa:	b086      	sub	sp, #24
 80002ac:	af00      	add	r7, sp, #0

  /* USER CODE BEGIN TIM2_Init 0 */

  /* USER CODE END TIM2_Init 0 */

  TIM_ClockConfigTypeDef sClockSourceConfig = {0};
 80002ae:	f107 0308 	add.w	r3, r7, #8
 80002b2:	2200      	movs	r2, #0
 80002b4:	601a      	str	r2, [r3, #0]
 80002b6:	605a      	str	r2, [r3, #4]
 80002b8:	609a      	str	r2, [r3, #8]
 80002ba:	60da      	str	r2, [r3, #12]
  TIM_MasterConfigTypeDef sMasterConfig = {0};
 80002bc:	463b      	mov	r3, r7
 80002be:	2200      	movs	r2, #0
 80002c0:	601a      	str	r2, [r3, #0]
 80002c2:	605a      	str	r2, [r3, #4]

  /* USER CODE BEGIN TIM2_Init 1 */

  /* USER CODE END TIM2_Init 1 */
  htim2.Instance = TIM2;
 80002c4:	4b1d      	ldr	r3, [pc, #116]	; (800033c <MX_TIM2_Init+0x94>)
 80002c6:	f04f 4280 	mov.w	r2, #1073741824	; 0x40000000
 80002ca:	601a      	str	r2, [r3, #0]
  htim2.Init.Prescaler = 7999;
 80002cc:	4b1b      	ldr	r3, [pc, #108]	; (800033c <MX_TIM2_Init+0x94>)
 80002ce:	f641 723f 	movw	r2, #7999	; 0x1f3f
 80002d2:	605a      	str	r2, [r3, #4]
  htim2.Init.CounterMode = TIM_COUNTERMODE_UP;
 80002d4:	4b19      	ldr	r3, [pc, #100]	; (800033c <MX_TIM2_Init+0x94>)
 80002d6:	2200      	movs	r2, #0
 80002d8:	609a      	str	r2, [r3, #8]
  htim2.Init.Period = 9;
 80002da:	4b18      	ldr	r3, [pc, #96]	; (800033c <MX_TIM2_Init+0x94>)
 80002dc:	2209      	movs	r2, #9
 80002de:	60da      	str	r2, [r3, #12]
  htim2.Init.ClockDivision = TIM_CLOCKDIVISION_DIV1;
 80002e0:	4b16      	ldr	r3, [pc, #88]	; (800033c <MX_TIM2_Init+0x94>)
 80002e2:	2200      	movs	r2, #0
 80002e4:	611a      	str	r2, [r3, #16]
  htim2.Init.AutoReloadPreload = TIM_AUTORELOAD_PRELOAD_DISABLE;
 80002e6:	4b15      	ldr	r3, [pc, #84]	; (800033c <MX_TIM2_Init+0x94>)
 80002e8:	2200      	movs	r2, #0
 80002ea:	619a      	str	r2, [r3, #24]
  if (HAL_TIM_Base_Init(&htim2) != HAL_OK)
 80002ec:	4813      	ldr	r0, [pc, #76]	; (800033c <MX_TIM2_Init+0x94>)
 80002ee:	f001 f977 	bl	80015e0 <HAL_TIM_Base_Init>
 80002f2:	4603      	mov	r3, r0
 80002f4:	2b00      	cmp	r3, #0
 80002f6:	d001      	beq.n	80002fc <MX_TIM2_Init+0x54>
  {
    Error_Handler();
 80002f8:	f000 f860 	bl	80003bc <Error_Handler>
  }
  sClockSourceConfig.ClockSource = TIM_CLOCKSOURCE_INTERNAL;
 80002fc:	f44f 5380 	mov.w	r3, #4096	; 0x1000
 8000300:	60bb      	str	r3, [r7, #8]
  if (HAL_TIM_ConfigClockSource(&htim2, &sClockSourceConfig) != HAL_OK)
 8000302:	f107 0308 	add.w	r3, r7, #8
 8000306:	4619      	mov	r1, r3
 8000308:	480c      	ldr	r0, [pc, #48]	; (800033c <MX_TIM2_Init+0x94>)
 800030a:	f001 fb0d 	bl	8001928 <HAL_TIM_ConfigClockSource>
 800030e:	4603      	mov	r3, r0
 8000310:	2b00      	cmp	r3, #0
 8000312:	d001      	beq.n	8000318 <MX_TIM2_Init+0x70>
  {
    Error_Handler();
 8000314:	f000 f852 	bl	80003bc <Error_Handler>
  }
  sMasterConfig.MasterOutputTrigger = TIM_TRGO_RESET;
 8000318:	2300      	movs	r3, #0
 800031a:	603b      	str	r3, [r7, #0]
  sMasterConfig.MasterSlaveMode = TIM_MASTERSLAVEMODE_DISABLE;
 800031c:	2300      	movs	r3, #0
 800031e:	607b      	str	r3, [r7, #4]
  if (HAL_TIMEx_MasterConfigSynchronization(&htim2, &sMasterConfig) != HAL_OK)
 8000320:	463b      	mov	r3, r7
 8000322:	4619      	mov	r1, r3
 8000324:	4805      	ldr	r0, [pc, #20]	; (800033c <MX_TIM2_Init+0x94>)
 8000326:	f001 fcd9 	bl	8001cdc <HAL_TIMEx_MasterConfigSynchronization>
 800032a:	4603      	mov	r3, r0
 800032c:	2b00      	cmp	r3, #0
 800032e:	d001      	beq.n	8000334 <MX_TIM2_Init+0x8c>
  {
    Error_Handler();
 8000330:	f000 f844 	bl	80003bc <Error_Handler>
  }
  /* USER CODE BEGIN TIM2_Init 2 */

  /* USER CODE END TIM2_Init 2 */

}
 8000334:	bf00      	nop
 8000336:	3718      	adds	r7, #24
 8000338:	46bd      	mov	sp, r7
 800033a:	bd80      	pop	{r7, pc}
 800033c:	20000028 	.word	0x20000028

08000340 <MX_GPIO_Init>:
  * @brief GPIO Initialization Function
  * @param None
  * @retval None
  */
static void MX_GPIO_Init(void)
{
 8000340:	b580      	push	{r7, lr}
 8000342:	b086      	sub	sp, #24
 8000344:	af00      	add	r7, sp, #0
  GPIO_InitTypeDef GPIO_InitStruct = {0};
 8000346:	f107 0308 	add.w	r3, r7, #8
 800034a:	2200      	movs	r2, #0
 800034c:	601a      	str	r2, [r3, #0]
 800034e:	605a      	str	r2, [r3, #4]
 8000350:	609a      	str	r2, [r3, #8]
 8000352:	60da      	str	r2, [r3, #12]
/* USER CODE BEGIN MX_GPIO_Init_1 */
/* USER CODE END MX_GPIO_Init_1 */

  /* GPIO Ports Clock Enable */
  __HAL_RCC_GPIOA_CLK_ENABLE();
 8000354:	4b12      	ldr	r3, [pc, #72]	; (80003a0 <MX_GPIO_Init+0x60>)
 8000356:	699b      	ldr	r3, [r3, #24]
 8000358:	4a11      	ldr	r2, [pc, #68]	; (80003a0 <MX_GPIO_Init+0x60>)
 800035a:	f043 0304 	orr.w	r3, r3, #4
 800035e:	6193      	str	r3, [r2, #24]
 8000360:	4b0f      	ldr	r3, [pc, #60]	; (80003a0 <MX_GPIO_Init+0x60>)
 8000362:	699b      	ldr	r3, [r3, #24]
 8000364:	f003 0304 	and.w	r3, r3, #4
 8000368:	607b      	str	r3, [r7, #4]
 800036a:	687b      	ldr	r3, [r7, #4]

  /*Configure GPIO pin Output Level */
  HAL_GPIO_WritePin(GPIOA, LED_RED_Pin|LED_YELLOW_Pin|LED_GREEN_Pin|LED_BLUE_Pin
 800036c:	2200      	movs	r2, #0
 800036e:	f44f 7178 	mov.w	r1, #992	; 0x3e0
 8000372:	480c      	ldr	r0, [pc, #48]	; (80003a4 <MX_GPIO_Init+0x64>)
 8000374:	f000 fd24 	bl	8000dc0 <HAL_GPIO_WritePin>
                          |LED_ORANGE_Pin, GPIO_PIN_RESET);

  /*Configure GPIO pins : LED_RED_Pin LED_YELLOW_Pin LED_GREEN_Pin LED_BLUE_Pin
                           LED_ORANGE_Pin */
  GPIO_InitStruct.Pin = LED_RED_Pin|LED_YELLOW_Pin|LED_GREEN_Pin|LED_BLUE_Pin
 8000378:	f44f 7378 	mov.w	r3, #992	; 0x3e0
 800037c:	60bb      	str	r3, [r7, #8]
                          |LED_ORANGE_Pin;
  GPIO_InitStruct.Mode = GPIO_MODE_OUTPUT_PP;
 800037e:	2301      	movs	r3, #1
 8000380:	60fb      	str	r3, [r7, #12]
  GPIO_InitStruct.Pull = GPIO_NOPULL;
 8000382:	2300      	movs	r3, #0
 8000384:	613b      	str	r3, [r7, #16]
  GPIO_InitStruct.Speed = GPIO_SPEED_FREQ_LOW;
 8000386:	2302      	movs	r3, #2
 8000388:	617b      	str	r3, [r7, #20]
  HAL_GPIO_Init(GPIOA, &GPIO_InitStruct);
 800038a:	f107 0308 	add.w	r3, r7, #8
 800038e:	4619      	mov	r1, r3
 8000390:	4804      	ldr	r0, [pc, #16]	; (80003a4 <MX_GPIO_Init+0x64>)
 8000392:	f000 fb99 	bl	8000ac8 <HAL_GPIO_Init>

/* USER CODE BEGIN MX_GPIO_Init_2 */
/* USER CODE END MX_GPIO_Init_2 */
}
 8000396:	bf00      	nop
 8000398:	3718      	adds	r7, #24
 800039a:	46bd      	mov	sp, r7
 800039c:	bd80      	pop	{r7, pc}
 800039e:	bf00      	nop
 80003a0:	40021000 	.word	0x40021000
 80003a4:	40010800 	.word	0x40010800

080003a8 <HAL_TIM_PeriodElapsedCallback>:

/* USER CODE BEGIN 4 */
//unsigned int counter = 100;
void HAL_TIM_PeriodElapsedCallback(TIM_HandleTypeDef *htim)
{
 80003a8:	b580      	push	{r7, lr}
 80003aa:	b082      	sub	sp, #8
 80003ac:	af00      	add	r7, sp, #0
 80003ae:	6078      	str	r0, [r7, #4]
	SCH_Update();
 80003b0:	f000 f81e 	bl	80003f0 <SCH_Update>
//		{
//			counter = 100;
//			HAL_GPIO_TogglePin(LED_RED_GPIO_Port, LED_RED_Pin);
//		}
//	}
}
 80003b4:	bf00      	nop
 80003b6:	3708      	adds	r7, #8
 80003b8:	46bd      	mov	sp, r7
 80003ba:	bd80      	pop	{r7, pc}

080003bc <Error_Handler>:
/**
  * @brief  This function is executed in case of error occurrence.
  * @retval None
  */
void Error_Handler(void)
{
 80003bc:	b480      	push	{r7}
 80003be:	af00      	add	r7, sp, #0
  \details Disables IRQ interrupts by setting the I-bit in the CPSR.
           Can only be executed in Privileged modes.
 */
__STATIC_FORCEINLINE void __disable_irq(void)
{
  __ASM volatile ("cpsid i" : : : "memory");
 80003c0:	b672      	cpsid	i
}
 80003c2:	bf00      	nop
  /* USER CODE BEGIN Error_Handler_Debug */
  /* User can add his own implementation to report the HAL error return state */
  __disable_irq();
  while (1)
 80003c4:	e7fe      	b.n	80003c4 <Error_Handler+0x8>

080003c6 <SCH_Init>:
#include "main.h"

sTask SCH_tasks_G[SCH_MAX_TASKS];

void SCH_Init(void)
{
 80003c6:	b580      	push	{r7, lr}
 80003c8:	b082      	sub	sp, #8
 80003ca:	af00      	add	r7, sp, #0
	unsigned char i;
	for(i = 0; i < SCH_MAX_TASKS; i++)
 80003cc:	2300      	movs	r3, #0
 80003ce:	71fb      	strb	r3, [r7, #7]
 80003d0:	e006      	b.n	80003e0 <SCH_Init+0x1a>
	{
		SCH_Delete_Task(i);
 80003d2:	79fb      	ldrb	r3, [r7, #7]
 80003d4:	4618      	mov	r0, r3
 80003d6:	f000 f91f 	bl	8000618 <SCH_Delete_Task>
	for(i = 0; i < SCH_MAX_TASKS; i++)
 80003da:	79fb      	ldrb	r3, [r7, #7]
 80003dc:	3301      	adds	r3, #1
 80003de:	71fb      	strb	r3, [r7, #7]
 80003e0:	79fb      	ldrb	r3, [r7, #7]
 80003e2:	2b27      	cmp	r3, #39	; 0x27
 80003e4:	d9f5      	bls.n	80003d2 <SCH_Init+0xc>
//	Error_code_G = 0;
//	Timer_init();
	/*Timer init is done in the main function*/
//	Watchdog_init();
	/*Watchdog init is not necessary*/
}
 80003e6:	bf00      	nop
 80003e8:	bf00      	nop
 80003ea:	3708      	adds	r7, #8
 80003ec:	46bd      	mov	sp, r7
 80003ee:	bd80      	pop	{r7, pc}

080003f0 <SCH_Update>:

void SCH_Update(void)
{
 80003f0:	b480      	push	{r7}
 80003f2:	b083      	sub	sp, #12
 80003f4:	af00      	add	r7, sp, #0
	unsigned char Index;
	for(Index = 0; Index < SCH_MAX_TASKS; Index++)
 80003f6:	2300      	movs	r3, #0
 80003f8:	71fb      	strb	r3, [r7, #7]
 80003fa:	e05d      	b.n	80004b8 <SCH_Update+0xc8>
	{
		if(SCH_tasks_G[Index].pTask)
 80003fc:	79fa      	ldrb	r2, [r7, #7]
 80003fe:	4933      	ldr	r1, [pc, #204]	; (80004cc <SCH_Update+0xdc>)
 8000400:	4613      	mov	r3, r2
 8000402:	009b      	lsls	r3, r3, #2
 8000404:	4413      	add	r3, r2
 8000406:	009b      	lsls	r3, r3, #2
 8000408:	440b      	add	r3, r1
 800040a:	681b      	ldr	r3, [r3, #0]
 800040c:	2b00      	cmp	r3, #0
 800040e:	d050      	beq.n	80004b2 <SCH_Update+0xc2>
		{
			if(SCH_tasks_G[Index].Delay == 0)
 8000410:	79fa      	ldrb	r2, [r7, #7]
 8000412:	492e      	ldr	r1, [pc, #184]	; (80004cc <SCH_Update+0xdc>)
 8000414:	4613      	mov	r3, r2
 8000416:	009b      	lsls	r3, r3, #2
 8000418:	4413      	add	r3, r2
 800041a:	009b      	lsls	r3, r3, #2
 800041c:	440b      	add	r3, r1
 800041e:	3304      	adds	r3, #4
 8000420:	681b      	ldr	r3, [r3, #0]
 8000422:	2b00      	cmp	r3, #0
 8000424:	d132      	bne.n	800048c <SCH_Update+0x9c>
			{
				SCH_tasks_G[Index].RunMe += 1;
 8000426:	79fa      	ldrb	r2, [r7, #7]
 8000428:	4928      	ldr	r1, [pc, #160]	; (80004cc <SCH_Update+0xdc>)
 800042a:	4613      	mov	r3, r2
 800042c:	009b      	lsls	r3, r3, #2
 800042e:	4413      	add	r3, r2
 8000430:	009b      	lsls	r3, r3, #2
 8000432:	440b      	add	r3, r1
 8000434:	330c      	adds	r3, #12
 8000436:	781b      	ldrb	r3, [r3, #0]
 8000438:	79fa      	ldrb	r2, [r7, #7]
 800043a:	3301      	adds	r3, #1
 800043c:	b2d8      	uxtb	r0, r3
 800043e:	4923      	ldr	r1, [pc, #140]	; (80004cc <SCH_Update+0xdc>)
 8000440:	4613      	mov	r3, r2
 8000442:	009b      	lsls	r3, r3, #2
 8000444:	4413      	add	r3, r2
 8000446:	009b      	lsls	r3, r3, #2
 8000448:	440b      	add	r3, r1
 800044a:	330c      	adds	r3, #12
 800044c:	4602      	mov	r2, r0
 800044e:	701a      	strb	r2, [r3, #0]
				if(SCH_tasks_G[Index].Period)
 8000450:	79fa      	ldrb	r2, [r7, #7]
 8000452:	491e      	ldr	r1, [pc, #120]	; (80004cc <SCH_Update+0xdc>)
 8000454:	4613      	mov	r3, r2
 8000456:	009b      	lsls	r3, r3, #2
 8000458:	4413      	add	r3, r2
 800045a:	009b      	lsls	r3, r3, #2
 800045c:	440b      	add	r3, r1
 800045e:	3308      	adds	r3, #8
 8000460:	681b      	ldr	r3, [r3, #0]
 8000462:	2b00      	cmp	r3, #0
 8000464:	d025      	beq.n	80004b2 <SCH_Update+0xc2>
				{
					SCH_tasks_G[Index].Delay = SCH_tasks_G[Index].Period;
 8000466:	79f9      	ldrb	r1, [r7, #7]
 8000468:	79fa      	ldrb	r2, [r7, #7]
 800046a:	4818      	ldr	r0, [pc, #96]	; (80004cc <SCH_Update+0xdc>)
 800046c:	460b      	mov	r3, r1
 800046e:	009b      	lsls	r3, r3, #2
 8000470:	440b      	add	r3, r1
 8000472:	009b      	lsls	r3, r3, #2
 8000474:	4403      	add	r3, r0
 8000476:	3308      	adds	r3, #8
 8000478:	6819      	ldr	r1, [r3, #0]
 800047a:	4814      	ldr	r0, [pc, #80]	; (80004cc <SCH_Update+0xdc>)
 800047c:	4613      	mov	r3, r2
 800047e:	009b      	lsls	r3, r3, #2
 8000480:	4413      	add	r3, r2
 8000482:	009b      	lsls	r3, r3, #2
 8000484:	4403      	add	r3, r0
 8000486:	3304      	adds	r3, #4
 8000488:	6019      	str	r1, [r3, #0]
 800048a:	e012      	b.n	80004b2 <SCH_Update+0xc2>
				}
			}
			else
			{
				SCH_tasks_G[Index].Delay -= 1;
 800048c:	79fa      	ldrb	r2, [r7, #7]
 800048e:	490f      	ldr	r1, [pc, #60]	; (80004cc <SCH_Update+0xdc>)
 8000490:	4613      	mov	r3, r2
 8000492:	009b      	lsls	r3, r3, #2
 8000494:	4413      	add	r3, r2
 8000496:	009b      	lsls	r3, r3, #2
 8000498:	440b      	add	r3, r1
 800049a:	3304      	adds	r3, #4
 800049c:	681b      	ldr	r3, [r3, #0]
 800049e:	79fa      	ldrb	r2, [r7, #7]
 80004a0:	1e59      	subs	r1, r3, #1
 80004a2:	480a      	ldr	r0, [pc, #40]	; (80004cc <SCH_Update+0xdc>)
 80004a4:	4613      	mov	r3, r2
 80004a6:	009b      	lsls	r3, r3, #2
 80004a8:	4413      	add	r3, r2
 80004aa:	009b      	lsls	r3, r3, #2
 80004ac:	4403      	add	r3, r0
 80004ae:	3304      	adds	r3, #4
 80004b0:	6019      	str	r1, [r3, #0]
	for(Index = 0; Index < SCH_MAX_TASKS; Index++)
 80004b2:	79fb      	ldrb	r3, [r7, #7]
 80004b4:	3301      	adds	r3, #1
 80004b6:	71fb      	strb	r3, [r7, #7]
 80004b8:	79fb      	ldrb	r3, [r7, #7]
 80004ba:	2b27      	cmp	r3, #39	; 0x27
 80004bc:	d99e      	bls.n	80003fc <SCH_Update+0xc>
			}
		}
	}
}
 80004be:	bf00      	nop
 80004c0:	bf00      	nop
 80004c2:	370c      	adds	r7, #12
 80004c4:	46bd      	mov	sp, r7
 80004c6:	bc80      	pop	{r7}
 80004c8:	4770      	bx	lr
 80004ca:	bf00      	nop
 80004cc:	20000070 	.word	0x20000070

080004d0 <SCH_Add_Task>:

unsigned char SCH_Add_Task(void (*pFunction)(), unsigned int DELAY, unsigned int PERIOD)
{
 80004d0:	b480      	push	{r7}
 80004d2:	b087      	sub	sp, #28
 80004d4:	af00      	add	r7, sp, #0
 80004d6:	60f8      	str	r0, [r7, #12]
 80004d8:	60b9      	str	r1, [r7, #8]
 80004da:	607a      	str	r2, [r7, #4]
	unsigned char Index = 0;
 80004dc:	2300      	movs	r3, #0
 80004de:	75fb      	strb	r3, [r7, #23]

	while((SCH_tasks_G[Index].pTask != 0) && (Index < SCH_MAX_TASKS))
 80004e0:	e002      	b.n	80004e8 <SCH_Add_Task+0x18>
	{
		Index++;
 80004e2:	7dfb      	ldrb	r3, [r7, #23]
 80004e4:	3301      	adds	r3, #1
 80004e6:	75fb      	strb	r3, [r7, #23]
	while((SCH_tasks_G[Index].pTask != 0) && (Index < SCH_MAX_TASKS))
 80004e8:	7dfa      	ldrb	r2, [r7, #23]
 80004ea:	4923      	ldr	r1, [pc, #140]	; (8000578 <SCH_Add_Task+0xa8>)
 80004ec:	4613      	mov	r3, r2
 80004ee:	009b      	lsls	r3, r3, #2
 80004f0:	4413      	add	r3, r2
 80004f2:	009b      	lsls	r3, r3, #2
 80004f4:	440b      	add	r3, r1
 80004f6:	681b      	ldr	r3, [r3, #0]
 80004f8:	2b00      	cmp	r3, #0
 80004fa:	d002      	beq.n	8000502 <SCH_Add_Task+0x32>
 80004fc:	7dfb      	ldrb	r3, [r7, #23]
 80004fe:	2b27      	cmp	r3, #39	; 0x27
 8000500:	d9ef      	bls.n	80004e2 <SCH_Add_Task+0x12>
	}
	/*if we reach the end of the list*/
	if(Index == SCH_MAX_TASKS)
 8000502:	7dfb      	ldrb	r3, [r7, #23]
 8000504:	2b28      	cmp	r3, #40	; 0x28
 8000506:	d101      	bne.n	800050c <SCH_Add_Task+0x3c>
	{
//		Error_code_G = ERROR_SCH_TOO_MANY_TASKS;
		return SCH_MAX_TASKS;
 8000508:	2328      	movs	r3, #40	; 0x28
 800050a:	e02f      	b.n	800056c <SCH_Add_Task+0x9c>
	}
	SCH_tasks_G[Index].pTask = pFunction;
 800050c:	7dfa      	ldrb	r2, [r7, #23]
 800050e:	491a      	ldr	r1, [pc, #104]	; (8000578 <SCH_Add_Task+0xa8>)
 8000510:	4613      	mov	r3, r2
 8000512:	009b      	lsls	r3, r3, #2
 8000514:	4413      	add	r3, r2
 8000516:	009b      	lsls	r3, r3, #2
 8000518:	440b      	add	r3, r1
 800051a:	68fa      	ldr	r2, [r7, #12]
 800051c:	601a      	str	r2, [r3, #0]
	SCH_tasks_G[Index].Delay = DELAY/TICK;
 800051e:	7dfa      	ldrb	r2, [r7, #23]
 8000520:	68bb      	ldr	r3, [r7, #8]
 8000522:	4916      	ldr	r1, [pc, #88]	; (800057c <SCH_Add_Task+0xac>)
 8000524:	fba1 1303 	umull	r1, r3, r1, r3
 8000528:	08d9      	lsrs	r1, r3, #3
 800052a:	4813      	ldr	r0, [pc, #76]	; (8000578 <SCH_Add_Task+0xa8>)
 800052c:	4613      	mov	r3, r2
 800052e:	009b      	lsls	r3, r3, #2
 8000530:	4413      	add	r3, r2
 8000532:	009b      	lsls	r3, r3, #2
 8000534:	4403      	add	r3, r0
 8000536:	3304      	adds	r3, #4
 8000538:	6019      	str	r1, [r3, #0]
	SCH_tasks_G[Index].Period = PERIOD/TICK;
 800053a:	7dfa      	ldrb	r2, [r7, #23]
 800053c:	687b      	ldr	r3, [r7, #4]
 800053e:	490f      	ldr	r1, [pc, #60]	; (800057c <SCH_Add_Task+0xac>)
 8000540:	fba1 1303 	umull	r1, r3, r1, r3
 8000544:	08d9      	lsrs	r1, r3, #3
 8000546:	480c      	ldr	r0, [pc, #48]	; (8000578 <SCH_Add_Task+0xa8>)
 8000548:	4613      	mov	r3, r2
 800054a:	009b      	lsls	r3, r3, #2
 800054c:	4413      	add	r3, r2
 800054e:	009b      	lsls	r3, r3, #2
 8000550:	4403      	add	r3, r0
 8000552:	3308      	adds	r3, #8
 8000554:	6019      	str	r1, [r3, #0]
	SCH_tasks_G[Index].RunMe = 0;
 8000556:	7dfa      	ldrb	r2, [r7, #23]
 8000558:	4907      	ldr	r1, [pc, #28]	; (8000578 <SCH_Add_Task+0xa8>)
 800055a:	4613      	mov	r3, r2
 800055c:	009b      	lsls	r3, r3, #2
 800055e:	4413      	add	r3, r2
 8000560:	009b      	lsls	r3, r3, #2
 8000562:	440b      	add	r3, r1
 8000564:	330c      	adds	r3, #12
 8000566:	2200      	movs	r2, #0
 8000568:	701a      	strb	r2, [r3, #0]

	return Index;
 800056a:	7dfb      	ldrb	r3, [r7, #23]
}
 800056c:	4618      	mov	r0, r3
 800056e:	371c      	adds	r7, #28
 8000570:	46bd      	mov	sp, r7
 8000572:	bc80      	pop	{r7}
 8000574:	4770      	bx	lr
 8000576:	bf00      	nop
 8000578:	20000070 	.word	0x20000070
 800057c:	cccccccd 	.word	0xcccccccd

08000580 <SCH_Dispatch_Tasks>:

void SCH_Dispatch_Tasks(void)
{
 8000580:	b580      	push	{r7, lr}
 8000582:	b082      	sub	sp, #8
 8000584:	af00      	add	r7, sp, #0
	unsigned char Index;
	for(Index = 0; Index < SCH_MAX_TASKS; Index++)
 8000586:	2300      	movs	r3, #0
 8000588:	71fb      	strb	r3, [r7, #7]
 800058a:	e03a      	b.n	8000602 <SCH_Dispatch_Tasks+0x82>
	{
		if(SCH_tasks_G[Index].RunMe > 0)
 800058c:	79fa      	ldrb	r2, [r7, #7]
 800058e:	4921      	ldr	r1, [pc, #132]	; (8000614 <SCH_Dispatch_Tasks+0x94>)
 8000590:	4613      	mov	r3, r2
 8000592:	009b      	lsls	r3, r3, #2
 8000594:	4413      	add	r3, r2
 8000596:	009b      	lsls	r3, r3, #2
 8000598:	440b      	add	r3, r1
 800059a:	330c      	adds	r3, #12
 800059c:	781b      	ldrb	r3, [r3, #0]
 800059e:	2b00      	cmp	r3, #0
 80005a0:	d02c      	beq.n	80005fc <SCH_Dispatch_Tasks+0x7c>
		{
			(*SCH_tasks_G[Index].pTask)();
 80005a2:	79fa      	ldrb	r2, [r7, #7]
 80005a4:	491b      	ldr	r1, [pc, #108]	; (8000614 <SCH_Dispatch_Tasks+0x94>)
 80005a6:	4613      	mov	r3, r2
 80005a8:	009b      	lsls	r3, r3, #2
 80005aa:	4413      	add	r3, r2
 80005ac:	009b      	lsls	r3, r3, #2
 80005ae:	440b      	add	r3, r1
 80005b0:	681b      	ldr	r3, [r3, #0]
 80005b2:	4798      	blx	r3
			SCH_tasks_G[Index].RunMe -= 1;
 80005b4:	79fa      	ldrb	r2, [r7, #7]
 80005b6:	4917      	ldr	r1, [pc, #92]	; (8000614 <SCH_Dispatch_Tasks+0x94>)
 80005b8:	4613      	mov	r3, r2
 80005ba:	009b      	lsls	r3, r3, #2
 80005bc:	4413      	add	r3, r2
 80005be:	009b      	lsls	r3, r3, #2
 80005c0:	440b      	add	r3, r1
 80005c2:	330c      	adds	r3, #12
 80005c4:	781b      	ldrb	r3, [r3, #0]
 80005c6:	79fa      	ldrb	r2, [r7, #7]
 80005c8:	3b01      	subs	r3, #1
 80005ca:	b2d8      	uxtb	r0, r3
 80005cc:	4911      	ldr	r1, [pc, #68]	; (8000614 <SCH_Dispatch_Tasks+0x94>)
 80005ce:	4613      	mov	r3, r2
 80005d0:	009b      	lsls	r3, r3, #2
 80005d2:	4413      	add	r3, r2
 80005d4:	009b      	lsls	r3, r3, #2
 80005d6:	440b      	add	r3, r1
 80005d8:	330c      	adds	r3, #12
 80005da:	4602      	mov	r2, r0
 80005dc:	701a      	strb	r2, [r3, #0]
			if(SCH_tasks_G[Index].Period == 0)
 80005de:	79fa      	ldrb	r2, [r7, #7]
 80005e0:	490c      	ldr	r1, [pc, #48]	; (8000614 <SCH_Dispatch_Tasks+0x94>)
 80005e2:	4613      	mov	r3, r2
 80005e4:	009b      	lsls	r3, r3, #2
 80005e6:	4413      	add	r3, r2
 80005e8:	009b      	lsls	r3, r3, #2
 80005ea:	440b      	add	r3, r1
 80005ec:	3308      	adds	r3, #8
 80005ee:	681b      	ldr	r3, [r3, #0]
 80005f0:	2b00      	cmp	r3, #0
 80005f2:	d103      	bne.n	80005fc <SCH_Dispatch_Tasks+0x7c>
			{
				SCH_Delete_Task(Index);
 80005f4:	79fb      	ldrb	r3, [r7, #7]
 80005f6:	4618      	mov	r0, r3
 80005f8:	f000 f80e 	bl	8000618 <SCH_Delete_Task>
	for(Index = 0; Index < SCH_MAX_TASKS; Index++)
 80005fc:	79fb      	ldrb	r3, [r7, #7]
 80005fe:	3301      	adds	r3, #1
 8000600:	71fb      	strb	r3, [r7, #7]
 8000602:	79fb      	ldrb	r3, [r7, #7]
 8000604:	2b27      	cmp	r3, #39	; 0x27
 8000606:	d9c1      	bls.n	800058c <SCH_Dispatch_Tasks+0xc>
			}
		}
	}
//	SCH_Report_Status();
//	SCH_Go_To_Sleep();
}
 8000608:	bf00      	nop
 800060a:	bf00      	nop
 800060c:	3708      	adds	r7, #8
 800060e:	46bd      	mov	sp, r7
 8000610:	bd80      	pop	{r7, pc}
 8000612:	bf00      	nop
 8000614:	20000070 	.word	0x20000070

08000618 <SCH_Delete_Task>:

unsigned char SCH_Delete_Task(const unsigned char TASK_INDEX)
{
 8000618:	b480      	push	{r7}
 800061a:	b085      	sub	sp, #20
 800061c:	af00      	add	r7, sp, #0
 800061e:	4603      	mov	r3, r0
 8000620:	71fb      	strb	r3, [r7, #7]
	unsigned char Return_code;
	if(SCH_tasks_G[TASK_INDEX].pTask == 0)
 8000622:	79fa      	ldrb	r2, [r7, #7]
 8000624:	491d      	ldr	r1, [pc, #116]	; (800069c <SCH_Delete_Task+0x84>)
 8000626:	4613      	mov	r3, r2
 8000628:	009b      	lsls	r3, r3, #2
 800062a:	4413      	add	r3, r2
 800062c:	009b      	lsls	r3, r3, #2
 800062e:	440b      	add	r3, r1
 8000630:	681b      	ldr	r3, [r3, #0]
 8000632:	2b00      	cmp	r3, #0
 8000634:	d102      	bne.n	800063c <SCH_Delete_Task+0x24>
	{
//		Error_code_G = ERROR_SCH_CANNOT_DELETE_TASK;
		Return_code = RETURN_ERROR;
 8000636:	2300      	movs	r3, #0
 8000638:	73fb      	strb	r3, [r7, #15]
 800063a:	e001      	b.n	8000640 <SCH_Delete_Task+0x28>
	}
	else
	{
		Return_code = RETURN_NORMAL;
 800063c:	2301      	movs	r3, #1
 800063e:	73fb      	strb	r3, [r7, #15]
	}
	SCH_tasks_G[TASK_INDEX].pTask = 0x0000;
 8000640:	79fa      	ldrb	r2, [r7, #7]
 8000642:	4916      	ldr	r1, [pc, #88]	; (800069c <SCH_Delete_Task+0x84>)
 8000644:	4613      	mov	r3, r2
 8000646:	009b      	lsls	r3, r3, #2
 8000648:	4413      	add	r3, r2
 800064a:	009b      	lsls	r3, r3, #2
 800064c:	440b      	add	r3, r1
 800064e:	2200      	movs	r2, #0
 8000650:	601a      	str	r2, [r3, #0]
	SCH_tasks_G[TASK_INDEX].Delay = 0;
 8000652:	79fa      	ldrb	r2, [r7, #7]
 8000654:	4911      	ldr	r1, [pc, #68]	; (800069c <SCH_Delete_Task+0x84>)
 8000656:	4613      	mov	r3, r2
 8000658:	009b      	lsls	r3, r3, #2
 800065a:	4413      	add	r3, r2
 800065c:	009b      	lsls	r3, r3, #2
 800065e:	440b      	add	r3, r1
 8000660:	3304      	adds	r3, #4
 8000662:	2200      	movs	r2, #0
 8000664:	601a      	str	r2, [r3, #0]
	SCH_tasks_G[TASK_INDEX].Period = 0;
 8000666:	79fa      	ldrb	r2, [r7, #7]
 8000668:	490c      	ldr	r1, [pc, #48]	; (800069c <SCH_Delete_Task+0x84>)
 800066a:	4613      	mov	r3, r2
 800066c:	009b      	lsls	r3, r3, #2
 800066e:	4413      	add	r3, r2
 8000670:	009b      	lsls	r3, r3, #2
 8000672:	440b      	add	r3, r1
 8000674:	3308      	adds	r3, #8
 8000676:	2200      	movs	r2, #0
 8000678:	601a      	str	r2, [r3, #0]
	SCH_tasks_G[TASK_INDEX].RunMe = 0;
 800067a:	79fa      	ldrb	r2, [r7, #7]
 800067c:	4907      	ldr	r1, [pc, #28]	; (800069c <SCH_Delete_Task+0x84>)
 800067e:	4613      	mov	r3, r2
 8000680:	009b      	lsls	r3, r3, #2
 8000682:	4413      	add	r3, r2
 8000684:	009b      	lsls	r3, r3, #2
 8000686:	440b      	add	r3, r1
 8000688:	330c      	adds	r3, #12
 800068a:	2200      	movs	r2, #0
 800068c:	701a      	strb	r2, [r3, #0]

	return Return_code;
 800068e:	7bfb      	ldrb	r3, [r7, #15]
}
 8000690:	4618      	mov	r0, r3
 8000692:	3714      	adds	r7, #20
 8000694:	46bd      	mov	sp, r7
 8000696:	bc80      	pop	{r7}
 8000698:	4770      	bx	lr
 800069a:	bf00      	nop
 800069c:	20000070 	.word	0x20000070

080006a0 <HAL_MspInit>:
/* USER CODE END 0 */
/**
  * Initializes the Global MSP.
  */
void HAL_MspInit(void)
{
 80006a0:	b480      	push	{r7}
 80006a2:	b083      	sub	sp, #12
 80006a4:	af00      	add	r7, sp, #0
  /* USER CODE BEGIN MspInit 0 */

  /* USER CODE END MspInit 0 */

  __HAL_RCC_AFIO_CLK_ENABLE();
 80006a6:	4b0e      	ldr	r3, [pc, #56]	; (80006e0 <HAL_MspInit+0x40>)
 80006a8:	699b      	ldr	r3, [r3, #24]
 80006aa:	4a0d      	ldr	r2, [pc, #52]	; (80006e0 <HAL_MspInit+0x40>)
 80006ac:	f043 0301 	orr.w	r3, r3, #1
 80006b0:	6193      	str	r3, [r2, #24]
 80006b2:	4b0b      	ldr	r3, [pc, #44]	; (80006e0 <HAL_MspInit+0x40>)
 80006b4:	699b      	ldr	r3, [r3, #24]
 80006b6:	f003 0301 	and.w	r3, r3, #1
 80006ba:	607b      	str	r3, [r7, #4]
 80006bc:	687b      	ldr	r3, [r7, #4]
  __HAL_RCC_PWR_CLK_ENABLE();
 80006be:	4b08      	ldr	r3, [pc, #32]	; (80006e0 <HAL_MspInit+0x40>)
 80006c0:	69db      	ldr	r3, [r3, #28]
 80006c2:	4a07      	ldr	r2, [pc, #28]	; (80006e0 <HAL_MspInit+0x40>)
 80006c4:	f043 5380 	orr.w	r3, r3, #268435456	; 0x10000000
 80006c8:	61d3      	str	r3, [r2, #28]
 80006ca:	4b05      	ldr	r3, [pc, #20]	; (80006e0 <HAL_MspInit+0x40>)
 80006cc:	69db      	ldr	r3, [r3, #28]
 80006ce:	f003 5380 	and.w	r3, r3, #268435456	; 0x10000000
 80006d2:	603b      	str	r3, [r7, #0]
 80006d4:	683b      	ldr	r3, [r7, #0]
  /* System interrupt init*/

  /* USER CODE BEGIN MspInit 1 */

  /* USER CODE END MspInit 1 */
}
 80006d6:	bf00      	nop
 80006d8:	370c      	adds	r7, #12
 80006da:	46bd      	mov	sp, r7
 80006dc:	bc80      	pop	{r7}
 80006de:	4770      	bx	lr
 80006e0:	40021000 	.word	0x40021000

080006e4 <HAL_TIM_Base_MspInit>:
* This function configures the hardware resources used in this example
* @param htim_base: TIM_Base handle pointer
* @retval None
*/
void HAL_TIM_Base_MspInit(TIM_HandleTypeDef* htim_base)
{
 80006e4:	b580      	push	{r7, lr}
 80006e6:	b084      	sub	sp, #16
 80006e8:	af00      	add	r7, sp, #0
 80006ea:	6078      	str	r0, [r7, #4]
  if(htim_base->Instance==TIM2)
 80006ec:	687b      	ldr	r3, [r7, #4]
 80006ee:	681b      	ldr	r3, [r3, #0]
 80006f0:	f1b3 4f80 	cmp.w	r3, #1073741824	; 0x40000000
 80006f4:	d113      	bne.n	800071e <HAL_TIM_Base_MspInit+0x3a>
  {
  /* USER CODE BEGIN TIM2_MspInit 0 */

  /* USER CODE END TIM2_MspInit 0 */
    /* Peripheral clock enable */
    __HAL_RCC_TIM2_CLK_ENABLE();
 80006f6:	4b0c      	ldr	r3, [pc, #48]	; (8000728 <HAL_TIM_Base_MspInit+0x44>)
 80006f8:	69db      	ldr	r3, [r3, #28]
 80006fa:	4a0b      	ldr	r2, [pc, #44]	; (8000728 <HAL_TIM_Base_MspInit+0x44>)
 80006fc:	f043 0301 	orr.w	r3, r3, #1
 8000700:	61d3      	str	r3, [r2, #28]
 8000702:	4b09      	ldr	r3, [pc, #36]	; (8000728 <HAL_TIM_Base_MspInit+0x44>)
 8000704:	69db      	ldr	r3, [r3, #28]
 8000706:	f003 0301 	and.w	r3, r3, #1
 800070a:	60fb      	str	r3, [r7, #12]
 800070c:	68fb      	ldr	r3, [r7, #12]
    /* TIM2 interrupt Init */
    HAL_NVIC_SetPriority(TIM2_IRQn, 0, 0);
 800070e:	2200      	movs	r2, #0
 8000710:	2100      	movs	r1, #0
 8000712:	201c      	movs	r0, #28
 8000714:	f000 f9a1 	bl	8000a5a <HAL_NVIC_SetPriority>
    HAL_NVIC_EnableIRQ(TIM2_IRQn);
 8000718:	201c      	movs	r0, #28
 800071a:	f000 f9ba 	bl	8000a92 <HAL_NVIC_EnableIRQ>
  /* USER CODE BEGIN TIM2_MspInit 1 */

  /* USER CODE END TIM2_MspInit 1 */
  }

}
 800071e:	bf00      	nop
 8000720:	3710      	adds	r7, #16
 8000722:	46bd      	mov	sp, r7
 8000724:	bd80      	pop	{r7, pc}
 8000726:	bf00      	nop
 8000728:	40021000 	.word	0x40021000

0800072c <NMI_Handler>:
/******************************************************************************/
/**
  * @brief This function handles Non maskable interrupt.
  */
void NMI_Handler(void)
{
 800072c:	b480      	push	{r7}
 800072e:	af00      	add	r7, sp, #0
  /* USER CODE BEGIN NonMaskableInt_IRQn 0 */

  /* USER CODE END NonMaskableInt_IRQn 0 */
  /* USER CODE BEGIN NonMaskableInt_IRQn 1 */
  while (1)
 8000730:	e7fe      	b.n	8000730 <NMI_Handler+0x4>

08000732 <HardFault_Handler>:

/**
  * @brief This function handles Hard fault interrupt.
  */
void HardFault_Handler(void)
{
 8000732:	b480      	push	{r7}
 8000734:	af00      	add	r7, sp, #0
  /* USER CODE BEGIN HardFault_IRQn 0 */

  /* USER CODE END HardFault_IRQn 0 */
  while (1)
 8000736:	e7fe      	b.n	8000736 <HardFault_Handler+0x4>

08000738 <MemManage_Handler>:

/**
  * @brief This function handles Memory management fault.
  */
void MemManage_Handler(void)
{
 8000738:	b480      	push	{r7}
 800073a:	af00      	add	r7, sp, #0
  /* USER CODE BEGIN MemoryManagement_IRQn 0 */

  /* USER CODE END MemoryManagement_IRQn 0 */
  while (1)
 800073c:	e7fe      	b.n	800073c <MemManage_Handler+0x4>

0800073e <BusFault_Handler>:

/**
  * @brief This function handles Prefetch fault, memory access fault.
  */
void BusFault_Handler(void)
{
 800073e:	b480      	push	{r7}
 8000740:	af00      	add	r7, sp, #0
  /* USER CODE BEGIN BusFault_IRQn 0 */

  /* USER CODE END BusFault_IRQn 0 */
  while (1)
 8000742:	e7fe      	b.n	8000742 <BusFault_Handler+0x4>

08000744 <UsageFault_Handler>:

/**
  * @brief This function handles Undefined instruction or illegal state.
  */
void UsageFault_Handler(void)
{
 8000744:	b480      	push	{r7}
 8000746:	af00      	add	r7, sp, #0
  /* USER CODE BEGIN UsageFault_IRQn 0 */

  /* USER CODE END UsageFault_IRQn 0 */
  while (1)
 8000748:	e7fe      	b.n	8000748 <UsageFault_Handler+0x4>

0800074a <SVC_Handler>:

/**
  * @brief This function handles System service call via SWI instruction.
  */
void SVC_Handler(void)
{
 800074a:	b480      	push	{r7}
 800074c:	af00      	add	r7, sp, #0

  /* USER CODE END SVCall_IRQn 0 */
  /* USER CODE BEGIN SVCall_IRQn 1 */

  /* USER CODE END SVCall_IRQn 1 */
}
 800074e:	bf00      	nop
 8000750:	46bd      	mov	sp, r7
 8000752:	bc80      	pop	{r7}
 8000754:	4770      	bx	lr

08000756 <DebugMon_Handler>:

/**
  * @brief This function handles Debug monitor.
  */
void DebugMon_Handler(void)
{
 8000756:	b480      	push	{r7}
 8000758:	af00      	add	r7, sp, #0

  /* USER CODE END DebugMonitor_IRQn 0 */
  /* USER CODE BEGIN DebugMonitor_IRQn 1 */

  /* USER CODE END DebugMonitor_IRQn 1 */
}
 800075a:	bf00      	nop
 800075c:	46bd      	mov	sp, r7
 800075e:	bc80      	pop	{r7}
 8000760:	4770      	bx	lr

08000762 <PendSV_Handler>:

/**
  * @brief This function handles Pendable request for system service.
  */
void PendSV_Handler(void)
{
 8000762:	b480      	push	{r7}
 8000764:	af00      	add	r7, sp, #0

  /* USER CODE END PendSV_IRQn 0 */
  /* USER CODE BEGIN PendSV_IRQn 1 */

  /* USER CODE END PendSV_IRQn 1 */
}
 8000766:	bf00      	nop
 8000768:	46bd      	mov	sp, r7
 800076a:	bc80      	pop	{r7}
 800076c:	4770      	bx	lr

0800076e <SysTick_Handler>:

/**
  * @brief This function handles System tick timer.
  */
void SysTick_Handler(void)
{
 800076e:	b580      	push	{r7, lr}
 8000770:	af00      	add	r7, sp, #0
  /* USER CODE BEGIN SysTick_IRQn 0 */

  /* USER CODE END SysTick_IRQn 0 */
  HAL_IncTick();
 8000772:	f000 f87f 	bl	8000874 <HAL_IncTick>
  /* USER CODE BEGIN SysTick_IRQn 1 */

  /* USER CODE END SysTick_IRQn 1 */
}
 8000776:	bf00      	nop
 8000778:	bd80      	pop	{r7, pc}
	...

0800077c <TIM2_IRQHandler>:

/**
  * @brief This function handles TIM2 global interrupt.
  */
void TIM2_IRQHandler(void)
{
 800077c:	b580      	push	{r7, lr}
 800077e:	af00      	add	r7, sp, #0
  /* USER CODE BEGIN TIM2_IRQn 0 */

  /* USER CODE END TIM2_IRQn 0 */
  HAL_TIM_IRQHandler(&htim2);
 8000780:	4802      	ldr	r0, [pc, #8]	; (800078c <TIM2_IRQHandler+0x10>)
 8000782:	f000 ffc9 	bl	8001718 <HAL_TIM_IRQHandler>
  /* USER CODE BEGIN TIM2_IRQn 1 */

  /* USER CODE END TIM2_IRQn 1 */
}
 8000786:	bf00      	nop
 8000788:	bd80      	pop	{r7, pc}
 800078a:	bf00      	nop
 800078c:	20000028 	.word	0x20000028

08000790 <SystemInit>:
  * @note   This function should be used only after reset.
  * @param  None
  * @retval None
  */
void SystemInit (void)
{
 8000790:	b480      	push	{r7}
 8000792:	af00      	add	r7, sp, #0

  /* Configure the Vector Table location -------------------------------------*/
#if defined(USER_VECT_TAB_ADDRESS)
  SCB->VTOR = VECT_TAB_BASE_ADDRESS | VECT_TAB_OFFSET; /* Vector Table Relocation in Internal SRAM. */
#endif /* USER_VECT_TAB_ADDRESS */
}
 8000794:	bf00      	nop
 8000796:	46bd      	mov	sp, r7
 8000798:	bc80      	pop	{r7}
 800079a:	4770      	bx	lr

0800079c <Reset_Handler>:
  .weak Reset_Handler
  .type Reset_Handler, %function
Reset_Handler:

/* Call the clock system initialization function.*/
    bl  SystemInit
 800079c:	f7ff fff8 	bl	8000790 <SystemInit>

/* Copy the data segment initializers from flash to SRAM */
  ldr r0, =_sdata
 80007a0:	480b      	ldr	r0, [pc, #44]	; (80007d0 <LoopFillZerobss+0xe>)
  ldr r1, =_edata
 80007a2:	490c      	ldr	r1, [pc, #48]	; (80007d4 <LoopFillZerobss+0x12>)
  ldr r2, =_sidata
 80007a4:	4a0c      	ldr	r2, [pc, #48]	; (80007d8 <LoopFillZerobss+0x16>)
  movs r3, #0
 80007a6:	2300      	movs	r3, #0
  b LoopCopyDataInit
 80007a8:	e002      	b.n	80007b0 <LoopCopyDataInit>

080007aa <CopyDataInit>:

CopyDataInit:
  ldr r4, [r2, r3]
 80007aa:	58d4      	ldr	r4, [r2, r3]
  str r4, [r0, r3]
 80007ac:	50c4      	str	r4, [r0, r3]
  adds r3, r3, #4
 80007ae:	3304      	adds	r3, #4

080007b0 <LoopCopyDataInit>:

LoopCopyDataInit:
  adds r4, r0, r3
 80007b0:	18c4      	adds	r4, r0, r3
  cmp r4, r1
 80007b2:	428c      	cmp	r4, r1
  bcc CopyDataInit
 80007b4:	d3f9      	bcc.n	80007aa <CopyDataInit>
  
/* Zero fill the bss segment. */
  ldr r2, =_sbss
 80007b6:	4a09      	ldr	r2, [pc, #36]	; (80007dc <LoopFillZerobss+0x1a>)
  ldr r4, =_ebss
 80007b8:	4c09      	ldr	r4, [pc, #36]	; (80007e0 <LoopFillZerobss+0x1e>)
  movs r3, #0
 80007ba:	2300      	movs	r3, #0
  b LoopFillZerobss
 80007bc:	e001      	b.n	80007c2 <LoopFillZerobss>

080007be <FillZerobss>:

FillZerobss:
  str  r3, [r2]
 80007be:	6013      	str	r3, [r2, #0]
  adds r2, r2, #4
 80007c0:	3204      	adds	r2, #4

080007c2 <LoopFillZerobss>:

LoopFillZerobss:
  cmp r2, r4
 80007c2:	42a2      	cmp	r2, r4
  bcc FillZerobss
 80007c4:	d3fb      	bcc.n	80007be <FillZerobss>

/* Call static constructors */
    bl __libc_init_array
 80007c6:	f001 faf3 	bl	8001db0 <__libc_init_array>
/* Call the application's entry point.*/
  bl main
 80007ca:	f7ff fcf5 	bl	80001b8 <main>
  bx lr
 80007ce:	4770      	bx	lr
  ldr r0, =_sdata
 80007d0:	20000000 	.word	0x20000000
  ldr r1, =_edata
 80007d4:	2000000c 	.word	0x2000000c
  ldr r2, =_sidata
 80007d8:	08001e4c 	.word	0x08001e4c
  ldr r2, =_sbss
 80007dc:	2000000c 	.word	0x2000000c
  ldr r4, =_ebss
 80007e0:	20000394 	.word	0x20000394

080007e4 <ADC1_2_IRQHandler>:
 * @retval : None
*/
    .section .text.Default_Handler,"ax",%progbits
Default_Handler:
Infinite_Loop:
  b Infinite_Loop
 80007e4:	e7fe      	b.n	80007e4 <ADC1_2_IRQHandler>
	...

080007e8 <HAL_Init>:
  *         need to ensure that the SysTick time base is always set to 1 millisecond
  *         to have correct HAL operation.
  * @retval HAL status
  */
HAL_StatusTypeDef HAL_Init(void)
{
 80007e8:	b580      	push	{r7, lr}
 80007ea:	af00      	add	r7, sp, #0
    defined(STM32F102x6) || defined(STM32F102xB) || \
    defined(STM32F103x6) || defined(STM32F103xB) || defined(STM32F103xE) || defined(STM32F103xG) || \
    defined(STM32F105xC) || defined(STM32F107xC)

  /* Prefetch buffer is not available on value line devices */
  __HAL_FLASH_PREFETCH_BUFFER_ENABLE();
 80007ec:	4b08      	ldr	r3, [pc, #32]	; (8000810 <HAL_Init+0x28>)
 80007ee:	681b      	ldr	r3, [r3, #0]
 80007f0:	4a07      	ldr	r2, [pc, #28]	; (8000810 <HAL_Init+0x28>)
 80007f2:	f043 0310 	orr.w	r3, r3, #16
 80007f6:	6013      	str	r3, [r2, #0]
#endif
#endif /* PREFETCH_ENABLE */

  /* Set Interrupt Group Priority */
  HAL_NVIC_SetPriorityGrouping(NVIC_PRIORITYGROUP_4);
 80007f8:	2003      	movs	r0, #3
 80007fa:	f000 f923 	bl	8000a44 <HAL_NVIC_SetPriorityGrouping>

  /* Use systick as time base source and configure 1ms tick (default clock after Reset is HSI) */
  HAL_InitTick(TICK_INT_PRIORITY);
 80007fe:	200f      	movs	r0, #15
 8000800:	f000 f808 	bl	8000814 <HAL_InitTick>

  /* Init the low level hardware */
  HAL_MspInit();
 8000804:	f7ff ff4c 	bl	80006a0 <HAL_MspInit>

  /* Return function status */
  return HAL_OK;
 8000808:	2300      	movs	r3, #0
}
 800080a:	4618      	mov	r0, r3
 800080c:	bd80      	pop	{r7, pc}
 800080e:	bf00      	nop
 8000810:	40022000 	.word	0x40022000

08000814 <HAL_InitTick>:
  *       implementation  in user file.
  * @param TickPriority Tick interrupt priority.
  * @retval HAL status
  */
__weak HAL_StatusTypeDef HAL_InitTick(uint32_t TickPriority)
{
 8000814:	b580      	push	{r7, lr}
 8000816:	b082      	sub	sp, #8
 8000818:	af00      	add	r7, sp, #0
 800081a:	6078      	str	r0, [r7, #4]
  /* Configure the SysTick to have interrupt in 1ms time basis*/
  if (HAL_SYSTICK_Config(SystemCoreClock / (1000U / uwTickFreq)) > 0U)
 800081c:	4b12      	ldr	r3, [pc, #72]	; (8000868 <HAL_InitTick+0x54>)
 800081e:	681a      	ldr	r2, [r3, #0]
 8000820:	4b12      	ldr	r3, [pc, #72]	; (800086c <HAL_InitTick+0x58>)
 8000822:	781b      	ldrb	r3, [r3, #0]
 8000824:	4619      	mov	r1, r3
 8000826:	f44f 737a 	mov.w	r3, #1000	; 0x3e8
 800082a:	fbb3 f3f1 	udiv	r3, r3, r1
 800082e:	fbb2 f3f3 	udiv	r3, r2, r3
 8000832:	4618      	mov	r0, r3
 8000834:	f000 f93b 	bl	8000aae <HAL_SYSTICK_Config>
 8000838:	4603      	mov	r3, r0
 800083a:	2b00      	cmp	r3, #0
 800083c:	d001      	beq.n	8000842 <HAL_InitTick+0x2e>
  {
    return HAL_ERROR;
 800083e:	2301      	movs	r3, #1
 8000840:	e00e      	b.n	8000860 <HAL_InitTick+0x4c>
  }

  /* Configure the SysTick IRQ priority */
  if (TickPriority < (1UL << __NVIC_PRIO_BITS))
 8000842:	687b      	ldr	r3, [r7, #4]
 8000844:	2b0f      	cmp	r3, #15
 8000846:	d80a      	bhi.n	800085e <HAL_InitTick+0x4a>
  {
    HAL_NVIC_SetPriority(SysTick_IRQn, TickPriority, 0U);
 8000848:	2200      	movs	r2, #0
 800084a:	6879      	ldr	r1, [r7, #4]
 800084c:	f04f 30ff 	mov.w	r0, #4294967295
 8000850:	f000 f903 	bl	8000a5a <HAL_NVIC_SetPriority>
    uwTickPrio = TickPriority;
 8000854:	4a06      	ldr	r2, [pc, #24]	; (8000870 <HAL_InitTick+0x5c>)
 8000856:	687b      	ldr	r3, [r7, #4]
 8000858:	6013      	str	r3, [r2, #0]
  {
    return HAL_ERROR;
  }

  /* Return function status */
  return HAL_OK;
 800085a:	2300      	movs	r3, #0
 800085c:	e000      	b.n	8000860 <HAL_InitTick+0x4c>
    return HAL_ERROR;
 800085e:	2301      	movs	r3, #1
}
 8000860:	4618      	mov	r0, r3
 8000862:	3708      	adds	r7, #8
 8000864:	46bd      	mov	sp, r7
 8000866:	bd80      	pop	{r7, pc}
 8000868:	20000000 	.word	0x20000000
 800086c:	20000008 	.word	0x20000008
 8000870:	20000004 	.word	0x20000004

08000874 <HAL_IncTick>:
  * @note This function is declared as __weak to be overwritten in case of other
  *      implementations in user file.
  * @retval None
  */
__weak void HAL_IncTick(void)
{
 8000874:	b480      	push	{r7}
 8000876:	af00      	add	r7, sp, #0
  uwTick += uwTickFreq;
 8000878:	4b05      	ldr	r3, [pc, #20]	; (8000890 <HAL_IncTick+0x1c>)
 800087a:	781b      	ldrb	r3, [r3, #0]
 800087c:	461a      	mov	r2, r3
 800087e:	4b05      	ldr	r3, [pc, #20]	; (8000894 <HAL_IncTick+0x20>)
 8000880:	681b      	ldr	r3, [r3, #0]
 8000882:	4413      	add	r3, r2
 8000884:	4a03      	ldr	r2, [pc, #12]	; (8000894 <HAL_IncTick+0x20>)
 8000886:	6013      	str	r3, [r2, #0]
}
 8000888:	bf00      	nop
 800088a:	46bd      	mov	sp, r7
 800088c:	bc80      	pop	{r7}
 800088e:	4770      	bx	lr
 8000890:	20000008 	.word	0x20000008
 8000894:	20000390 	.word	0x20000390

08000898 <HAL_GetTick>:
  * @note  This function is declared as __weak to be overwritten in case of other
  *       implementations in user file.
  * @retval tick value
  */
__weak uint32_t HAL_GetTick(void)
{
 8000898:	b480      	push	{r7}
 800089a:	af00      	add	r7, sp, #0
  return uwTick;
 800089c:	4b02      	ldr	r3, [pc, #8]	; (80008a8 <HAL_GetTick+0x10>)
 800089e:	681b      	ldr	r3, [r3, #0]
}
 80008a0:	4618      	mov	r0, r3
 80008a2:	46bd      	mov	sp, r7
 80008a4:	bc80      	pop	{r7}
 80008a6:	4770      	bx	lr
 80008a8:	20000390 	.word	0x20000390

080008ac <__NVIC_SetPriorityGrouping>:
           In case of a conflict between priority grouping and available
           priority bits (__NVIC_PRIO_BITS), the smallest possible priority group is set.
  \param [in]      PriorityGroup  Priority grouping field.
 */
__STATIC_INLINE void __NVIC_SetPriorityGrouping(uint32_t PriorityGroup)
{
 80008ac:	b480      	push	{r7}
 80008ae:	b085      	sub	sp, #20
 80008b0:	af00      	add	r7, sp, #0
 80008b2:	6078      	str	r0, [r7, #4]
  uint32_t reg_value;
  uint32_t PriorityGroupTmp = (PriorityGroup & (uint32_t)0x07UL);             /* only values 0..7 are used          */
 80008b4:	687b      	ldr	r3, [r7, #4]
 80008b6:	f003 0307 	and.w	r3, r3, #7
 80008ba:	60fb      	str	r3, [r7, #12]

  reg_value  =  SCB->AIRCR;                                                   /* read old register configuration    */
 80008bc:	4b0c      	ldr	r3, [pc, #48]	; (80008f0 <__NVIC_SetPriorityGrouping+0x44>)
 80008be:	68db      	ldr	r3, [r3, #12]
 80008c0:	60bb      	str	r3, [r7, #8]
  reg_value &= ~((uint32_t)(SCB_AIRCR_VECTKEY_Msk | SCB_AIRCR_PRIGROUP_Msk)); /* clear bits to change               */
 80008c2:	68ba      	ldr	r2, [r7, #8]
 80008c4:	f64f 03ff 	movw	r3, #63743	; 0xf8ff
 80008c8:	4013      	ands	r3, r2
 80008ca:	60bb      	str	r3, [r7, #8]
  reg_value  =  (reg_value                                   |
                ((uint32_t)0x5FAUL << SCB_AIRCR_VECTKEY_Pos) |
                (PriorityGroupTmp << SCB_AIRCR_PRIGROUP_Pos) );               /* Insert write key and priority group */
 80008cc:	68fb      	ldr	r3, [r7, #12]
 80008ce:	021a      	lsls	r2, r3, #8
                ((uint32_t)0x5FAUL << SCB_AIRCR_VECTKEY_Pos) |
 80008d0:	68bb      	ldr	r3, [r7, #8]
 80008d2:	4313      	orrs	r3, r2
  reg_value  =  (reg_value                                   |
 80008d4:	f043 63bf 	orr.w	r3, r3, #100139008	; 0x5f80000
 80008d8:	f443 3300 	orr.w	r3, r3, #131072	; 0x20000
 80008dc:	60bb      	str	r3, [r7, #8]
  SCB->AIRCR =  reg_value;
 80008de:	4a04      	ldr	r2, [pc, #16]	; (80008f0 <__NVIC_SetPriorityGrouping+0x44>)
 80008e0:	68bb      	ldr	r3, [r7, #8]
 80008e2:	60d3      	str	r3, [r2, #12]
}
 80008e4:	bf00      	nop
 80008e6:	3714      	adds	r7, #20
 80008e8:	46bd      	mov	sp, r7
 80008ea:	bc80      	pop	{r7}
 80008ec:	4770      	bx	lr
 80008ee:	bf00      	nop
 80008f0:	e000ed00 	.word	0xe000ed00

080008f4 <__NVIC_GetPriorityGrouping>:
  \brief   Get Priority Grouping
  \details Reads the priority grouping field from the NVIC Interrupt Controller.
  \return                Priority grouping field (SCB->AIRCR [10:8] PRIGROUP field).
 */
__STATIC_INLINE uint32_t __NVIC_GetPriorityGrouping(void)
{
 80008f4:	b480      	push	{r7}
 80008f6:	af00      	add	r7, sp, #0
  return ((uint32_t)((SCB->AIRCR & SCB_AIRCR_PRIGROUP_Msk) >> SCB_AIRCR_PRIGROUP_Pos));
 80008f8:	4b04      	ldr	r3, [pc, #16]	; (800090c <__NVIC_GetPriorityGrouping+0x18>)
 80008fa:	68db      	ldr	r3, [r3, #12]
 80008fc:	0a1b      	lsrs	r3, r3, #8
 80008fe:	f003 0307 	and.w	r3, r3, #7
}
 8000902:	4618      	mov	r0, r3
 8000904:	46bd      	mov	sp, r7
 8000906:	bc80      	pop	{r7}
 8000908:	4770      	bx	lr
 800090a:	bf00      	nop
 800090c:	e000ed00 	.word	0xe000ed00

08000910 <__NVIC_EnableIRQ>:
  \details Enables a device specific interrupt in the NVIC interrupt controller.
  \param [in]      IRQn  Device specific interrupt number.
  \note    IRQn must not be negative.
 */
__STATIC_INLINE void __NVIC_EnableIRQ(IRQn_Type IRQn)
{
 8000910:	b480      	push	{r7}
 8000912:	b083      	sub	sp, #12
 8000914:	af00      	add	r7, sp, #0
 8000916:	4603      	mov	r3, r0
 8000918:	71fb      	strb	r3, [r7, #7]
  if ((int32_t)(IRQn) >= 0)
 800091a:	f997 3007 	ldrsb.w	r3, [r7, #7]
 800091e:	2b00      	cmp	r3, #0
 8000920:	db0b      	blt.n	800093a <__NVIC_EnableIRQ+0x2a>
  {
    NVIC->ISER[(((uint32_t)IRQn) >> 5UL)] = (uint32_t)(1UL << (((uint32_t)IRQn) & 0x1FUL));
 8000922:	79fb      	ldrb	r3, [r7, #7]
 8000924:	f003 021f 	and.w	r2, r3, #31
 8000928:	4906      	ldr	r1, [pc, #24]	; (8000944 <__NVIC_EnableIRQ+0x34>)
 800092a:	f997 3007 	ldrsb.w	r3, [r7, #7]
 800092e:	095b      	lsrs	r3, r3, #5
 8000930:	2001      	movs	r0, #1
 8000932:	fa00 f202 	lsl.w	r2, r0, r2
 8000936:	f841 2023 	str.w	r2, [r1, r3, lsl #2]
  }
}
 800093a:	bf00      	nop
 800093c:	370c      	adds	r7, #12
 800093e:	46bd      	mov	sp, r7
 8000940:	bc80      	pop	{r7}
 8000942:	4770      	bx	lr
 8000944:	e000e100 	.word	0xe000e100

08000948 <__NVIC_SetPriority>:
  \param [in]      IRQn  Interrupt number.
  \param [in]  priority  Priority to set.
  \note    The priority cannot be set for every processor exception.
 */
__STATIC_INLINE void __NVIC_SetPriority(IRQn_Type IRQn, uint32_t priority)
{
 8000948:	b480      	push	{r7}
 800094a:	b083      	sub	sp, #12
 800094c:	af00      	add	r7, sp, #0
 800094e:	4603      	mov	r3, r0
 8000950:	6039      	str	r1, [r7, #0]
 8000952:	71fb      	strb	r3, [r7, #7]
  if ((int32_t)(IRQn) >= 0)
 8000954:	f997 3007 	ldrsb.w	r3, [r7, #7]
 8000958:	2b00      	cmp	r3, #0
 800095a:	db0a      	blt.n	8000972 <__NVIC_SetPriority+0x2a>
  {
    NVIC->IP[((uint32_t)IRQn)]               = (uint8_t)((priority << (8U - __NVIC_PRIO_BITS)) & (uint32_t)0xFFUL);
 800095c:	683b      	ldr	r3, [r7, #0]
 800095e:	b2da      	uxtb	r2, r3
 8000960:	490c      	ldr	r1, [pc, #48]	; (8000994 <__NVIC_SetPriority+0x4c>)
 8000962:	f997 3007 	ldrsb.w	r3, [r7, #7]
 8000966:	0112      	lsls	r2, r2, #4
 8000968:	b2d2      	uxtb	r2, r2
 800096a:	440b      	add	r3, r1
 800096c:	f883 2300 	strb.w	r2, [r3, #768]	; 0x300
  }
  else
  {
    SCB->SHP[(((uint32_t)IRQn) & 0xFUL)-4UL] = (uint8_t)((priority << (8U - __NVIC_PRIO_BITS)) & (uint32_t)0xFFUL);
  }
}
 8000970:	e00a      	b.n	8000988 <__NVIC_SetPriority+0x40>
    SCB->SHP[(((uint32_t)IRQn) & 0xFUL)-4UL] = (uint8_t)((priority << (8U - __NVIC_PRIO_BITS)) & (uint32_t)0xFFUL);
 8000972:	683b      	ldr	r3, [r7, #0]
 8000974:	b2da      	uxtb	r2, r3
 8000976:	4908      	ldr	r1, [pc, #32]	; (8000998 <__NVIC_SetPriority+0x50>)
 8000978:	79fb      	ldrb	r3, [r7, #7]
 800097a:	f003 030f 	and.w	r3, r3, #15
 800097e:	3b04      	subs	r3, #4
 8000980:	0112      	lsls	r2, r2, #4
 8000982:	b2d2      	uxtb	r2, r2
 8000984:	440b      	add	r3, r1
 8000986:	761a      	strb	r2, [r3, #24]
}
 8000988:	bf00      	nop
 800098a:	370c      	adds	r7, #12
 800098c:	46bd      	mov	sp, r7
 800098e:	bc80      	pop	{r7}
 8000990:	4770      	bx	lr
 8000992:	bf00      	nop
 8000994:	e000e100 	.word	0xe000e100
 8000998:	e000ed00 	.word	0xe000ed00

0800099c <NVIC_EncodePriority>:
  \param [in]   PreemptPriority  Preemptive priority value (starting from 0).
  \param [in]       SubPriority  Subpriority value (starting from 0).
  \return                        Encoded priority. Value can be used in the function \ref NVIC_SetPriority().
 */
__STATIC_INLINE uint32_t NVIC_EncodePriority (uint32_t PriorityGroup, uint32_t PreemptPriority, uint32_t SubPriority)
{
 800099c:	b480      	push	{r7}
 800099e:	b089      	sub	sp, #36	; 0x24
 80009a0:	af00      	add	r7, sp, #0
 80009a2:	60f8      	str	r0, [r7, #12]
 80009a4:	60b9      	str	r1, [r7, #8]
 80009a6:	607a      	str	r2, [r7, #4]
  uint32_t PriorityGroupTmp = (PriorityGroup & (uint32_t)0x07UL);   /* only values 0..7 are used          */
 80009a8:	68fb      	ldr	r3, [r7, #12]
 80009aa:	f003 0307 	and.w	r3, r3, #7
 80009ae:	61fb      	str	r3, [r7, #28]
  uint32_t PreemptPriorityBits;
  uint32_t SubPriorityBits;

  PreemptPriorityBits = ((7UL - PriorityGroupTmp) > (uint32_t)(__NVIC_PRIO_BITS)) ? (uint32_t)(__NVIC_PRIO_BITS) : (uint32_t)(7UL - PriorityGroupTmp);
 80009b0:	69fb      	ldr	r3, [r7, #28]
 80009b2:	f1c3 0307 	rsb	r3, r3, #7
 80009b6:	2b04      	cmp	r3, #4
 80009b8:	bf28      	it	cs
 80009ba:	2304      	movcs	r3, #4
 80009bc:	61bb      	str	r3, [r7, #24]
  SubPriorityBits     = ((PriorityGroupTmp + (uint32_t)(__NVIC_PRIO_BITS)) < (uint32_t)7UL) ? (uint32_t)0UL : (uint32_t)((PriorityGroupTmp - 7UL) + (uint32_t)(__NVIC_PRIO_BITS));
 80009be:	69fb      	ldr	r3, [r7, #28]
 80009c0:	3304      	adds	r3, #4
 80009c2:	2b06      	cmp	r3, #6
 80009c4:	d902      	bls.n	80009cc <NVIC_EncodePriority+0x30>
 80009c6:	69fb      	ldr	r3, [r7, #28]
 80009c8:	3b03      	subs	r3, #3
 80009ca:	e000      	b.n	80009ce <NVIC_EncodePriority+0x32>
 80009cc:	2300      	movs	r3, #0
 80009ce:	617b      	str	r3, [r7, #20]

  return (
           ((PreemptPriority & (uint32_t)((1UL << (PreemptPriorityBits)) - 1UL)) << SubPriorityBits) |
 80009d0:	f04f 32ff 	mov.w	r2, #4294967295
 80009d4:	69bb      	ldr	r3, [r7, #24]
 80009d6:	fa02 f303 	lsl.w	r3, r2, r3
 80009da:	43da      	mvns	r2, r3
 80009dc:	68bb      	ldr	r3, [r7, #8]
 80009de:	401a      	ands	r2, r3
 80009e0:	697b      	ldr	r3, [r7, #20]
 80009e2:	409a      	lsls	r2, r3
           ((SubPriority     & (uint32_t)((1UL << (SubPriorityBits    )) - 1UL)))
 80009e4:	f04f 31ff 	mov.w	r1, #4294967295
 80009e8:	697b      	ldr	r3, [r7, #20]
 80009ea:	fa01 f303 	lsl.w	r3, r1, r3
 80009ee:	43d9      	mvns	r1, r3
 80009f0:	687b      	ldr	r3, [r7, #4]
 80009f2:	400b      	ands	r3, r1
           ((PreemptPriority & (uint32_t)((1UL << (PreemptPriorityBits)) - 1UL)) << SubPriorityBits) |
 80009f4:	4313      	orrs	r3, r2
         );
}
 80009f6:	4618      	mov	r0, r3
 80009f8:	3724      	adds	r7, #36	; 0x24
 80009fa:	46bd      	mov	sp, r7
 80009fc:	bc80      	pop	{r7}
 80009fe:	4770      	bx	lr

08000a00 <SysTick_Config>:
  \note    When the variable <b>__Vendor_SysTickConfig</b> is set to 1, then the
           function <b>SysTick_Config</b> is not included. In this case, the file <b><i>device</i>.h</b>
           must contain a vendor-specific implementation of this function.
 */
__STATIC_INLINE uint32_t SysTick_Config(uint32_t ticks)
{
 8000a00:	b580      	push	{r7, lr}
 8000a02:	b082      	sub	sp, #8
 8000a04:	af00      	add	r7, sp, #0
 8000a06:	6078      	str	r0, [r7, #4]
  if ((ticks - 1UL) > SysTick_LOAD_RELOAD_Msk)
 8000a08:	687b      	ldr	r3, [r7, #4]
 8000a0a:	3b01      	subs	r3, #1
 8000a0c:	f1b3 7f80 	cmp.w	r3, #16777216	; 0x1000000
 8000a10:	d301      	bcc.n	8000a16 <SysTick_Config+0x16>
  {
    return (1UL);                                                   /* Reload value impossible */
 8000a12:	2301      	movs	r3, #1
 8000a14:	e00f      	b.n	8000a36 <SysTick_Config+0x36>
  }

  SysTick->LOAD  = (uint32_t)(ticks - 1UL);                         /* set reload register */
 8000a16:	4a0a      	ldr	r2, [pc, #40]	; (8000a40 <SysTick_Config+0x40>)
 8000a18:	687b      	ldr	r3, [r7, #4]
 8000a1a:	3b01      	subs	r3, #1
 8000a1c:	6053      	str	r3, [r2, #4]
  NVIC_SetPriority (SysTick_IRQn, (1UL << __NVIC_PRIO_BITS) - 1UL); /* set Priority for Systick Interrupt */
 8000a1e:	210f      	movs	r1, #15
 8000a20:	f04f 30ff 	mov.w	r0, #4294967295
 8000a24:	f7ff ff90 	bl	8000948 <__NVIC_SetPriority>
  SysTick->VAL   = 0UL;                                             /* Load the SysTick Counter Value */
 8000a28:	4b05      	ldr	r3, [pc, #20]	; (8000a40 <SysTick_Config+0x40>)
 8000a2a:	2200      	movs	r2, #0
 8000a2c:	609a      	str	r2, [r3, #8]
  SysTick->CTRL  = SysTick_CTRL_CLKSOURCE_Msk |
 8000a2e:	4b04      	ldr	r3, [pc, #16]	; (8000a40 <SysTick_Config+0x40>)
 8000a30:	2207      	movs	r2, #7
 8000a32:	601a      	str	r2, [r3, #0]
                   SysTick_CTRL_TICKINT_Msk   |
                   SysTick_CTRL_ENABLE_Msk;                         /* Enable SysTick IRQ and SysTick Timer */
  return (0UL);                                                     /* Function successful */
 8000a34:	2300      	movs	r3, #0
}
 8000a36:	4618      	mov	r0, r3
 8000a38:	3708      	adds	r7, #8
 8000a3a:	46bd      	mov	sp, r7
 8000a3c:	bd80      	pop	{r7, pc}
 8000a3e:	bf00      	nop
 8000a40:	e000e010 	.word	0xe000e010

08000a44 <HAL_NVIC_SetPriorityGrouping>:
  * @note   When the NVIC_PriorityGroup_0 is selected, IRQ preemption is no more possible. 
  *         The pending IRQ priority will be managed only by the subpriority. 
  * @retval None
  */
void HAL_NVIC_SetPriorityGrouping(uint32_t PriorityGroup)
{
 8000a44:	b580      	push	{r7, lr}
 8000a46:	b082      	sub	sp, #8
 8000a48:	af00      	add	r7, sp, #0
 8000a4a:	6078      	str	r0, [r7, #4]
  /* Check the parameters */
  assert_param(IS_NVIC_PRIORITY_GROUP(PriorityGroup));
  
  /* Set the PRIGROUP[10:8] bits according to the PriorityGroup parameter value */
  NVIC_SetPriorityGrouping(PriorityGroup);
 8000a4c:	6878      	ldr	r0, [r7, #4]
 8000a4e:	f7ff ff2d 	bl	80008ac <__NVIC_SetPriorityGrouping>
}
 8000a52:	bf00      	nop
 8000a54:	3708      	adds	r7, #8
 8000a56:	46bd      	mov	sp, r7
 8000a58:	bd80      	pop	{r7, pc}

08000a5a <HAL_NVIC_SetPriority>:
  *         This parameter can be a value between 0 and 15
  *         A lower priority value indicates a higher priority.          
  * @retval None
  */
void HAL_NVIC_SetPriority(IRQn_Type IRQn, uint32_t PreemptPriority, uint32_t SubPriority)
{ 
 8000a5a:	b580      	push	{r7, lr}
 8000a5c:	b086      	sub	sp, #24
 8000a5e:	af00      	add	r7, sp, #0
 8000a60:	4603      	mov	r3, r0
 8000a62:	60b9      	str	r1, [r7, #8]
 8000a64:	607a      	str	r2, [r7, #4]
 8000a66:	73fb      	strb	r3, [r7, #15]
  uint32_t prioritygroup = 0x00U;
 8000a68:	2300      	movs	r3, #0
 8000a6a:	617b      	str	r3, [r7, #20]
  
  /* Check the parameters */
  assert_param(IS_NVIC_SUB_PRIORITY(SubPriority));
  assert_param(IS_NVIC_PREEMPTION_PRIORITY(PreemptPriority));
  
  prioritygroup = NVIC_GetPriorityGrouping();
 8000a6c:	f7ff ff42 	bl	80008f4 <__NVIC_GetPriorityGrouping>
 8000a70:	6178      	str	r0, [r7, #20]
  
  NVIC_SetPriority(IRQn, NVIC_EncodePriority(prioritygroup, PreemptPriority, SubPriority));
 8000a72:	687a      	ldr	r2, [r7, #4]
 8000a74:	68b9      	ldr	r1, [r7, #8]
 8000a76:	6978      	ldr	r0, [r7, #20]
 8000a78:	f7ff ff90 	bl	800099c <NVIC_EncodePriority>
 8000a7c:	4602      	mov	r2, r0
 8000a7e:	f997 300f 	ldrsb.w	r3, [r7, #15]
 8000a82:	4611      	mov	r1, r2
 8000a84:	4618      	mov	r0, r3
 8000a86:	f7ff ff5f 	bl	8000948 <__NVIC_SetPriority>
}
 8000a8a:	bf00      	nop
 8000a8c:	3718      	adds	r7, #24
 8000a8e:	46bd      	mov	sp, r7
 8000a90:	bd80      	pop	{r7, pc}

08000a92 <HAL_NVIC_EnableIRQ>:
  *         This parameter can be an enumerator of IRQn_Type enumeration
  *         (For the complete STM32 Devices IRQ Channels list, please refer to the appropriate CMSIS device file (stm32f10xxx.h))
  * @retval None
  */
void HAL_NVIC_EnableIRQ(IRQn_Type IRQn)
{
 8000a92:	b580      	push	{r7, lr}
 8000a94:	b082      	sub	sp, #8
 8000a96:	af00      	add	r7, sp, #0
 8000a98:	4603      	mov	r3, r0
 8000a9a:	71fb      	strb	r3, [r7, #7]
  /* Check the parameters */
  assert_param(IS_NVIC_DEVICE_IRQ(IRQn));

  /* Enable interrupt */
  NVIC_EnableIRQ(IRQn);
 8000a9c:	f997 3007 	ldrsb.w	r3, [r7, #7]
 8000aa0:	4618      	mov	r0, r3
 8000aa2:	f7ff ff35 	bl	8000910 <__NVIC_EnableIRQ>
}
 8000aa6:	bf00      	nop
 8000aa8:	3708      	adds	r7, #8
 8000aaa:	46bd      	mov	sp, r7
 8000aac:	bd80      	pop	{r7, pc}

08000aae <HAL_SYSTICK_Config>:
  * @param  TicksNumb: Specifies the ticks Number of ticks between two interrupts.
  * @retval status:  - 0  Function succeeded.
  *                  - 1  Function failed.
  */
uint32_t HAL_SYSTICK_Config(uint32_t TicksNumb)
{
 8000aae:	b580      	push	{r7, lr}
 8000ab0:	b082      	sub	sp, #8
 8000ab2:	af00      	add	r7, sp, #0
 8000ab4:	6078      	str	r0, [r7, #4]
   return SysTick_Config(TicksNumb);
 8000ab6:	6878      	ldr	r0, [r7, #4]
 8000ab8:	f7ff ffa2 	bl	8000a00 <SysTick_Config>
 8000abc:	4603      	mov	r3, r0
}
 8000abe:	4618      	mov	r0, r3
 8000ac0:	3708      	adds	r7, #8
 8000ac2:	46bd      	mov	sp, r7
 8000ac4:	bd80      	pop	{r7, pc}
	...

08000ac8 <HAL_GPIO_Init>:
  * @param  GPIO_Init: pointer to a GPIO_InitTypeDef structure that contains
  *         the configuration information for the specified GPIO peripheral.
  * @retval None
  */
void HAL_GPIO_Init(GPIO_TypeDef  *GPIOx, GPIO_InitTypeDef *GPIO_Init)
{
 8000ac8:	b480      	push	{r7}
 8000aca:	b08b      	sub	sp, #44	; 0x2c
 8000acc:	af00      	add	r7, sp, #0
 8000ace:	6078      	str	r0, [r7, #4]
 8000ad0:	6039      	str	r1, [r7, #0]
  uint32_t position = 0x00u;
 8000ad2:	2300      	movs	r3, #0
 8000ad4:	627b      	str	r3, [r7, #36]	; 0x24
  uint32_t ioposition;
  uint32_t iocurrent;
  uint32_t temp;
  uint32_t config = 0x00u;
 8000ad6:	2300      	movs	r3, #0
 8000ad8:	623b      	str	r3, [r7, #32]
  assert_param(IS_GPIO_ALL_INSTANCE(GPIOx));
  assert_param(IS_GPIO_PIN(GPIO_Init->Pin));
  assert_param(IS_GPIO_MODE(GPIO_Init->Mode));

  /* Configure the port pins */
  while (((GPIO_Init->Pin) >> position) != 0x00u)
 8000ada:	e161      	b.n	8000da0 <HAL_GPIO_Init+0x2d8>
  {
    /* Get the IO position */
    ioposition = (0x01uL << position);
 8000adc:	2201      	movs	r2, #1
 8000ade:	6a7b      	ldr	r3, [r7, #36]	; 0x24
 8000ae0:	fa02 f303 	lsl.w	r3, r2, r3
 8000ae4:	61fb      	str	r3, [r7, #28]

    /* Get the current IO position */
    iocurrent = (uint32_t)(GPIO_Init->Pin) & ioposition;
 8000ae6:	683b      	ldr	r3, [r7, #0]
 8000ae8:	681b      	ldr	r3, [r3, #0]
 8000aea:	69fa      	ldr	r2, [r7, #28]
 8000aec:	4013      	ands	r3, r2
 8000aee:	61bb      	str	r3, [r7, #24]

    if (iocurrent == ioposition)
 8000af0:	69ba      	ldr	r2, [r7, #24]
 8000af2:	69fb      	ldr	r3, [r7, #28]
 8000af4:	429a      	cmp	r2, r3
 8000af6:	f040 8150 	bne.w	8000d9a <HAL_GPIO_Init+0x2d2>
    {
      /* Check the Alternate function parameters */
      assert_param(IS_GPIO_AF_INSTANCE(GPIOx));

      /* Based on the required mode, filling config variable with MODEy[1:0] and CNFy[3:2] corresponding bits */
      switch (GPIO_Init->Mode)
 8000afa:	683b      	ldr	r3, [r7, #0]
 8000afc:	685b      	ldr	r3, [r3, #4]
 8000afe:	4a97      	ldr	r2, [pc, #604]	; (8000d5c <HAL_GPIO_Init+0x294>)
 8000b00:	4293      	cmp	r3, r2
 8000b02:	d05e      	beq.n	8000bc2 <HAL_GPIO_Init+0xfa>
 8000b04:	4a95      	ldr	r2, [pc, #596]	; (8000d5c <HAL_GPIO_Init+0x294>)
 8000b06:	4293      	cmp	r3, r2
 8000b08:	d875      	bhi.n	8000bf6 <HAL_GPIO_Init+0x12e>
 8000b0a:	4a95      	ldr	r2, [pc, #596]	; (8000d60 <HAL_GPIO_Init+0x298>)
 8000b0c:	4293      	cmp	r3, r2
 8000b0e:	d058      	beq.n	8000bc2 <HAL_GPIO_Init+0xfa>
 8000b10:	4a93      	ldr	r2, [pc, #588]	; (8000d60 <HAL_GPIO_Init+0x298>)
 8000b12:	4293      	cmp	r3, r2
 8000b14:	d86f      	bhi.n	8000bf6 <HAL_GPIO_Init+0x12e>
 8000b16:	4a93      	ldr	r2, [pc, #588]	; (8000d64 <HAL_GPIO_Init+0x29c>)
 8000b18:	4293      	cmp	r3, r2
 8000b1a:	d052      	beq.n	8000bc2 <HAL_GPIO_Init+0xfa>
 8000b1c:	4a91      	ldr	r2, [pc, #580]	; (8000d64 <HAL_GPIO_Init+0x29c>)
 8000b1e:	4293      	cmp	r3, r2
 8000b20:	d869      	bhi.n	8000bf6 <HAL_GPIO_Init+0x12e>
 8000b22:	4a91      	ldr	r2, [pc, #580]	; (8000d68 <HAL_GPIO_Init+0x2a0>)
 8000b24:	4293      	cmp	r3, r2
 8000b26:	d04c      	beq.n	8000bc2 <HAL_GPIO_Init+0xfa>
 8000b28:	4a8f      	ldr	r2, [pc, #572]	; (8000d68 <HAL_GPIO_Init+0x2a0>)
 8000b2a:	4293      	cmp	r3, r2
 8000b2c:	d863      	bhi.n	8000bf6 <HAL_GPIO_Init+0x12e>
 8000b2e:	4a8f      	ldr	r2, [pc, #572]	; (8000d6c <HAL_GPIO_Init+0x2a4>)
 8000b30:	4293      	cmp	r3, r2
 8000b32:	d046      	beq.n	8000bc2 <HAL_GPIO_Init+0xfa>
 8000b34:	4a8d      	ldr	r2, [pc, #564]	; (8000d6c <HAL_GPIO_Init+0x2a4>)
 8000b36:	4293      	cmp	r3, r2
 8000b38:	d85d      	bhi.n	8000bf6 <HAL_GPIO_Init+0x12e>
 8000b3a:	2b12      	cmp	r3, #18
 8000b3c:	d82a      	bhi.n	8000b94 <HAL_GPIO_Init+0xcc>
 8000b3e:	2b12      	cmp	r3, #18
 8000b40:	d859      	bhi.n	8000bf6 <HAL_GPIO_Init+0x12e>
 8000b42:	a201      	add	r2, pc, #4	; (adr r2, 8000b48 <HAL_GPIO_Init+0x80>)
 8000b44:	f852 f023 	ldr.w	pc, [r2, r3, lsl #2]
 8000b48:	08000bc3 	.word	0x08000bc3
 8000b4c:	08000b9d 	.word	0x08000b9d
 8000b50:	08000baf 	.word	0x08000baf
 8000b54:	08000bf1 	.word	0x08000bf1
 8000b58:	08000bf7 	.word	0x08000bf7
 8000b5c:	08000bf7 	.word	0x08000bf7
 8000b60:	08000bf7 	.word	0x08000bf7
 8000b64:	08000bf7 	.word	0x08000bf7
 8000b68:	08000bf7 	.word	0x08000bf7
 8000b6c:	08000bf7 	.word	0x08000bf7
 8000b70:	08000bf7 	.word	0x08000bf7
 8000b74:	08000bf7 	.word	0x08000bf7
 8000b78:	08000bf7 	.word	0x08000bf7
 8000b7c:	08000bf7 	.word	0x08000bf7
 8000b80:	08000bf7 	.word	0x08000bf7
 8000b84:	08000bf7 	.word	0x08000bf7
 8000b88:	08000bf7 	.word	0x08000bf7
 8000b8c:	08000ba5 	.word	0x08000ba5
 8000b90:	08000bb9 	.word	0x08000bb9
 8000b94:	4a76      	ldr	r2, [pc, #472]	; (8000d70 <HAL_GPIO_Init+0x2a8>)
 8000b96:	4293      	cmp	r3, r2
 8000b98:	d013      	beq.n	8000bc2 <HAL_GPIO_Init+0xfa>
          config = GPIO_CR_MODE_INPUT + GPIO_CR_CNF_ANALOG;
          break;

        /* Parameters are checked with assert_param */
        default:
          break;
 8000b9a:	e02c      	b.n	8000bf6 <HAL_GPIO_Init+0x12e>
          config = GPIO_Init->Speed + GPIO_CR_CNF_GP_OUTPUT_PP;
 8000b9c:	683b      	ldr	r3, [r7, #0]
 8000b9e:	68db      	ldr	r3, [r3, #12]
 8000ba0:	623b      	str	r3, [r7, #32]
          break;
 8000ba2:	e029      	b.n	8000bf8 <HAL_GPIO_Init+0x130>
          config = GPIO_Init->Speed + GPIO_CR_CNF_GP_OUTPUT_OD;
 8000ba4:	683b      	ldr	r3, [r7, #0]
 8000ba6:	68db      	ldr	r3, [r3, #12]
 8000ba8:	3304      	adds	r3, #4
 8000baa:	623b      	str	r3, [r7, #32]
          break;
 8000bac:	e024      	b.n	8000bf8 <HAL_GPIO_Init+0x130>
          config = GPIO_Init->Speed + GPIO_CR_CNF_AF_OUTPUT_PP;
 8000bae:	683b      	ldr	r3, [r7, #0]
 8000bb0:	68db      	ldr	r3, [r3, #12]
 8000bb2:	3308      	adds	r3, #8
 8000bb4:	623b      	str	r3, [r7, #32]
          break;
 8000bb6:	e01f      	b.n	8000bf8 <HAL_GPIO_Init+0x130>
          config = GPIO_Init->Speed + GPIO_CR_CNF_AF_OUTPUT_OD;
 8000bb8:	683b      	ldr	r3, [r7, #0]
 8000bba:	68db      	ldr	r3, [r3, #12]
 8000bbc:	330c      	adds	r3, #12
 8000bbe:	623b      	str	r3, [r7, #32]
          break;
 8000bc0:	e01a      	b.n	8000bf8 <HAL_GPIO_Init+0x130>
          if (GPIO_Init->Pull == GPIO_NOPULL)
 8000bc2:	683b      	ldr	r3, [r7, #0]
 8000bc4:	689b      	ldr	r3, [r3, #8]
 8000bc6:	2b00      	cmp	r3, #0
 8000bc8:	d102      	bne.n	8000bd0 <HAL_GPIO_Init+0x108>
            config = GPIO_CR_MODE_INPUT + GPIO_CR_CNF_INPUT_FLOATING;
 8000bca:	2304      	movs	r3, #4
 8000bcc:	623b      	str	r3, [r7, #32]
          break;
 8000bce:	e013      	b.n	8000bf8 <HAL_GPIO_Init+0x130>
          else if (GPIO_Init->Pull == GPIO_PULLUP)
 8000bd0:	683b      	ldr	r3, [r7, #0]
 8000bd2:	689b      	ldr	r3, [r3, #8]
 8000bd4:	2b01      	cmp	r3, #1
 8000bd6:	d105      	bne.n	8000be4 <HAL_GPIO_Init+0x11c>
            config = GPIO_CR_MODE_INPUT + GPIO_CR_CNF_INPUT_PU_PD;
 8000bd8:	2308      	movs	r3, #8
 8000bda:	623b      	str	r3, [r7, #32]
            GPIOx->BSRR = ioposition;
 8000bdc:	687b      	ldr	r3, [r7, #4]
 8000bde:	69fa      	ldr	r2, [r7, #28]
 8000be0:	611a      	str	r2, [r3, #16]
          break;
 8000be2:	e009      	b.n	8000bf8 <HAL_GPIO_Init+0x130>
            config = GPIO_CR_MODE_INPUT + GPIO_CR_CNF_INPUT_PU_PD;
 8000be4:	2308      	movs	r3, #8
 8000be6:	623b      	str	r3, [r7, #32]
            GPIOx->BRR = ioposition;
 8000be8:	687b      	ldr	r3, [r7, #4]
 8000bea:	69fa      	ldr	r2, [r7, #28]
 8000bec:	615a      	str	r2, [r3, #20]
          break;
 8000bee:	e003      	b.n	8000bf8 <HAL_GPIO_Init+0x130>
          config = GPIO_CR_MODE_INPUT + GPIO_CR_CNF_ANALOG;
 8000bf0:	2300      	movs	r3, #0
 8000bf2:	623b      	str	r3, [r7, #32]
          break;
 8000bf4:	e000      	b.n	8000bf8 <HAL_GPIO_Init+0x130>
          break;
 8000bf6:	bf00      	nop
      }

      /* Check if the current bit belongs to first half or last half of the pin count number
       in order to address CRH or CRL register*/
      configregister = (iocurrent < GPIO_PIN_8) ? &GPIOx->CRL     : &GPIOx->CRH;
 8000bf8:	69bb      	ldr	r3, [r7, #24]
 8000bfa:	2bff      	cmp	r3, #255	; 0xff
 8000bfc:	d801      	bhi.n	8000c02 <HAL_GPIO_Init+0x13a>
 8000bfe:	687b      	ldr	r3, [r7, #4]
 8000c00:	e001      	b.n	8000c06 <HAL_GPIO_Init+0x13e>
 8000c02:	687b      	ldr	r3, [r7, #4]
 8000c04:	3304      	adds	r3, #4
 8000c06:	617b      	str	r3, [r7, #20]
      registeroffset = (iocurrent < GPIO_PIN_8) ? (position << 2u) : ((position - 8u) << 2u);
 8000c08:	69bb      	ldr	r3, [r7, #24]
 8000c0a:	2bff      	cmp	r3, #255	; 0xff
 8000c0c:	d802      	bhi.n	8000c14 <HAL_GPIO_Init+0x14c>
 8000c0e:	6a7b      	ldr	r3, [r7, #36]	; 0x24
 8000c10:	009b      	lsls	r3, r3, #2
 8000c12:	e002      	b.n	8000c1a <HAL_GPIO_Init+0x152>
 8000c14:	6a7b      	ldr	r3, [r7, #36]	; 0x24
 8000c16:	3b08      	subs	r3, #8
 8000c18:	009b      	lsls	r3, r3, #2
 8000c1a:	613b      	str	r3, [r7, #16]

      /* Apply the new configuration of the pin to the register */
      MODIFY_REG((*configregister), ((GPIO_CRL_MODE0 | GPIO_CRL_CNF0) << registeroffset), (config << registeroffset));
 8000c1c:	697b      	ldr	r3, [r7, #20]
 8000c1e:	681a      	ldr	r2, [r3, #0]
 8000c20:	210f      	movs	r1, #15
 8000c22:	693b      	ldr	r3, [r7, #16]
 8000c24:	fa01 f303 	lsl.w	r3, r1, r3
 8000c28:	43db      	mvns	r3, r3
 8000c2a:	401a      	ands	r2, r3
 8000c2c:	6a39      	ldr	r1, [r7, #32]
 8000c2e:	693b      	ldr	r3, [r7, #16]
 8000c30:	fa01 f303 	lsl.w	r3, r1, r3
 8000c34:	431a      	orrs	r2, r3
 8000c36:	697b      	ldr	r3, [r7, #20]
 8000c38:	601a      	str	r2, [r3, #0]

      /*--------------------- EXTI Mode Configuration ------------------------*/
      /* Configure the External Interrupt or event for the current IO */
      if ((GPIO_Init->Mode & EXTI_MODE) == EXTI_MODE)
 8000c3a:	683b      	ldr	r3, [r7, #0]
 8000c3c:	685b      	ldr	r3, [r3, #4]
 8000c3e:	f003 5380 	and.w	r3, r3, #268435456	; 0x10000000
 8000c42:	2b00      	cmp	r3, #0
 8000c44:	f000 80a9 	beq.w	8000d9a <HAL_GPIO_Init+0x2d2>
      {
        /* Enable AFIO Clock */
        __HAL_RCC_AFIO_CLK_ENABLE();
 8000c48:	4b4a      	ldr	r3, [pc, #296]	; (8000d74 <HAL_GPIO_Init+0x2ac>)
 8000c4a:	699b      	ldr	r3, [r3, #24]
 8000c4c:	4a49      	ldr	r2, [pc, #292]	; (8000d74 <HAL_GPIO_Init+0x2ac>)
 8000c4e:	f043 0301 	orr.w	r3, r3, #1
 8000c52:	6193      	str	r3, [r2, #24]
 8000c54:	4b47      	ldr	r3, [pc, #284]	; (8000d74 <HAL_GPIO_Init+0x2ac>)
 8000c56:	699b      	ldr	r3, [r3, #24]
 8000c58:	f003 0301 	and.w	r3, r3, #1
 8000c5c:	60bb      	str	r3, [r7, #8]
 8000c5e:	68bb      	ldr	r3, [r7, #8]
        temp = AFIO->EXTICR[position >> 2u];
 8000c60:	4a45      	ldr	r2, [pc, #276]	; (8000d78 <HAL_GPIO_Init+0x2b0>)
 8000c62:	6a7b      	ldr	r3, [r7, #36]	; 0x24
 8000c64:	089b      	lsrs	r3, r3, #2
 8000c66:	3302      	adds	r3, #2
 8000c68:	f852 3023 	ldr.w	r3, [r2, r3, lsl #2]
 8000c6c:	60fb      	str	r3, [r7, #12]
        CLEAR_BIT(temp, (0x0Fu) << (4u * (position & 0x03u)));
 8000c6e:	6a7b      	ldr	r3, [r7, #36]	; 0x24
 8000c70:	f003 0303 	and.w	r3, r3, #3
 8000c74:	009b      	lsls	r3, r3, #2
 8000c76:	220f      	movs	r2, #15
 8000c78:	fa02 f303 	lsl.w	r3, r2, r3
 8000c7c:	43db      	mvns	r3, r3
 8000c7e:	68fa      	ldr	r2, [r7, #12]
 8000c80:	4013      	ands	r3, r2
 8000c82:	60fb      	str	r3, [r7, #12]
        SET_BIT(temp, (GPIO_GET_INDEX(GPIOx)) << (4u * (position & 0x03u)));
 8000c84:	687b      	ldr	r3, [r7, #4]
 8000c86:	4a3d      	ldr	r2, [pc, #244]	; (8000d7c <HAL_GPIO_Init+0x2b4>)
 8000c88:	4293      	cmp	r3, r2
 8000c8a:	d00d      	beq.n	8000ca8 <HAL_GPIO_Init+0x1e0>
 8000c8c:	687b      	ldr	r3, [r7, #4]
 8000c8e:	4a3c      	ldr	r2, [pc, #240]	; (8000d80 <HAL_GPIO_Init+0x2b8>)
 8000c90:	4293      	cmp	r3, r2
 8000c92:	d007      	beq.n	8000ca4 <HAL_GPIO_Init+0x1dc>
 8000c94:	687b      	ldr	r3, [r7, #4]
 8000c96:	4a3b      	ldr	r2, [pc, #236]	; (8000d84 <HAL_GPIO_Init+0x2bc>)
 8000c98:	4293      	cmp	r3, r2
 8000c9a:	d101      	bne.n	8000ca0 <HAL_GPIO_Init+0x1d8>
 8000c9c:	2302      	movs	r3, #2
 8000c9e:	e004      	b.n	8000caa <HAL_GPIO_Init+0x1e2>
 8000ca0:	2303      	movs	r3, #3
 8000ca2:	e002      	b.n	8000caa <HAL_GPIO_Init+0x1e2>
 8000ca4:	2301      	movs	r3, #1
 8000ca6:	e000      	b.n	8000caa <HAL_GPIO_Init+0x1e2>
 8000ca8:	2300      	movs	r3, #0
 8000caa:	6a7a      	ldr	r2, [r7, #36]	; 0x24
 8000cac:	f002 0203 	and.w	r2, r2, #3
 8000cb0:	0092      	lsls	r2, r2, #2
 8000cb2:	4093      	lsls	r3, r2
 8000cb4:	68fa      	ldr	r2, [r7, #12]
 8000cb6:	4313      	orrs	r3, r2
 8000cb8:	60fb      	str	r3, [r7, #12]
        AFIO->EXTICR[position >> 2u] = temp;
 8000cba:	492f      	ldr	r1, [pc, #188]	; (8000d78 <HAL_GPIO_Init+0x2b0>)
 8000cbc:	6a7b      	ldr	r3, [r7, #36]	; 0x24
 8000cbe:	089b      	lsrs	r3, r3, #2
 8000cc0:	3302      	adds	r3, #2
 8000cc2:	68fa      	ldr	r2, [r7, #12]
 8000cc4:	f841 2023 	str.w	r2, [r1, r3, lsl #2]


        /* Enable or disable the rising trigger */
        if ((GPIO_Init->Mode & RISING_EDGE) == RISING_EDGE)
 8000cc8:	683b      	ldr	r3, [r7, #0]
 8000cca:	685b      	ldr	r3, [r3, #4]
 8000ccc:	f403 1380 	and.w	r3, r3, #1048576	; 0x100000
 8000cd0:	2b00      	cmp	r3, #0
 8000cd2:	d006      	beq.n	8000ce2 <HAL_GPIO_Init+0x21a>
        {
          SET_BIT(EXTI->RTSR, iocurrent);
 8000cd4:	4b2c      	ldr	r3, [pc, #176]	; (8000d88 <HAL_GPIO_Init+0x2c0>)
 8000cd6:	689a      	ldr	r2, [r3, #8]
 8000cd8:	492b      	ldr	r1, [pc, #172]	; (8000d88 <HAL_GPIO_Init+0x2c0>)
 8000cda:	69bb      	ldr	r3, [r7, #24]
 8000cdc:	4313      	orrs	r3, r2
 8000cde:	608b      	str	r3, [r1, #8]
 8000ce0:	e006      	b.n	8000cf0 <HAL_GPIO_Init+0x228>
        }
        else
        {
          CLEAR_BIT(EXTI->RTSR, iocurrent);
 8000ce2:	4b29      	ldr	r3, [pc, #164]	; (8000d88 <HAL_GPIO_Init+0x2c0>)
 8000ce4:	689a      	ldr	r2, [r3, #8]
 8000ce6:	69bb      	ldr	r3, [r7, #24]
 8000ce8:	43db      	mvns	r3, r3
 8000cea:	4927      	ldr	r1, [pc, #156]	; (8000d88 <HAL_GPIO_Init+0x2c0>)
 8000cec:	4013      	ands	r3, r2
 8000cee:	608b      	str	r3, [r1, #8]
        }

        /* Enable or disable the falling trigger */
        if ((GPIO_Init->Mode & FALLING_EDGE) == FALLING_EDGE)
 8000cf0:	683b      	ldr	r3, [r7, #0]
 8000cf2:	685b      	ldr	r3, [r3, #4]
 8000cf4:	f403 1300 	and.w	r3, r3, #2097152	; 0x200000
 8000cf8:	2b00      	cmp	r3, #0
 8000cfa:	d006      	beq.n	8000d0a <HAL_GPIO_Init+0x242>
        {
          SET_BIT(EXTI->FTSR, iocurrent);
 8000cfc:	4b22      	ldr	r3, [pc, #136]	; (8000d88 <HAL_GPIO_Init+0x2c0>)
 8000cfe:	68da      	ldr	r2, [r3, #12]
 8000d00:	4921      	ldr	r1, [pc, #132]	; (8000d88 <HAL_GPIO_Init+0x2c0>)
 8000d02:	69bb      	ldr	r3, [r7, #24]
 8000d04:	4313      	orrs	r3, r2
 8000d06:	60cb      	str	r3, [r1, #12]
 8000d08:	e006      	b.n	8000d18 <HAL_GPIO_Init+0x250>
        }
        else
        {
          CLEAR_BIT(EXTI->FTSR, iocurrent);
 8000d0a:	4b1f      	ldr	r3, [pc, #124]	; (8000d88 <HAL_GPIO_Init+0x2c0>)
 8000d0c:	68da      	ldr	r2, [r3, #12]
 8000d0e:	69bb      	ldr	r3, [r7, #24]
 8000d10:	43db      	mvns	r3, r3
 8000d12:	491d      	ldr	r1, [pc, #116]	; (8000d88 <HAL_GPIO_Init+0x2c0>)
 8000d14:	4013      	ands	r3, r2
 8000d16:	60cb      	str	r3, [r1, #12]
        }

        /* Configure the event mask */
        if ((GPIO_Init->Mode & GPIO_MODE_EVT) == GPIO_MODE_EVT)
 8000d18:	683b      	ldr	r3, [r7, #0]
 8000d1a:	685b      	ldr	r3, [r3, #4]
 8000d1c:	f403 3300 	and.w	r3, r3, #131072	; 0x20000
 8000d20:	2b00      	cmp	r3, #0
 8000d22:	d006      	beq.n	8000d32 <HAL_GPIO_Init+0x26a>
        {
          SET_BIT(EXTI->EMR, iocurrent);
 8000d24:	4b18      	ldr	r3, [pc, #96]	; (8000d88 <HAL_GPIO_Init+0x2c0>)
 8000d26:	685a      	ldr	r2, [r3, #4]
 8000d28:	4917      	ldr	r1, [pc, #92]	; (8000d88 <HAL_GPIO_Init+0x2c0>)
 8000d2a:	69bb      	ldr	r3, [r7, #24]
 8000d2c:	4313      	orrs	r3, r2
 8000d2e:	604b      	str	r3, [r1, #4]
 8000d30:	e006      	b.n	8000d40 <HAL_GPIO_Init+0x278>
        }
        else
        {
          CLEAR_BIT(EXTI->EMR, iocurrent);
 8000d32:	4b15      	ldr	r3, [pc, #84]	; (8000d88 <HAL_GPIO_Init+0x2c0>)
 8000d34:	685a      	ldr	r2, [r3, #4]
 8000d36:	69bb      	ldr	r3, [r7, #24]
 8000d38:	43db      	mvns	r3, r3
 8000d3a:	4913      	ldr	r1, [pc, #76]	; (8000d88 <HAL_GPIO_Init+0x2c0>)
 8000d3c:	4013      	ands	r3, r2
 8000d3e:	604b      	str	r3, [r1, #4]
        }

        /* Configure the interrupt mask */
        if ((GPIO_Init->Mode & GPIO_MODE_IT) == GPIO_MODE_IT)
 8000d40:	683b      	ldr	r3, [r7, #0]
 8000d42:	685b      	ldr	r3, [r3, #4]
 8000d44:	f403 3380 	and.w	r3, r3, #65536	; 0x10000
 8000d48:	2b00      	cmp	r3, #0
 8000d4a:	d01f      	beq.n	8000d8c <HAL_GPIO_Init+0x2c4>
        {
          SET_BIT(EXTI->IMR, iocurrent);
 8000d4c:	4b0e      	ldr	r3, [pc, #56]	; (8000d88 <HAL_GPIO_Init+0x2c0>)
 8000d4e:	681a      	ldr	r2, [r3, #0]
 8000d50:	490d      	ldr	r1, [pc, #52]	; (8000d88 <HAL_GPIO_Init+0x2c0>)
 8000d52:	69bb      	ldr	r3, [r7, #24]
 8000d54:	4313      	orrs	r3, r2
 8000d56:	600b      	str	r3, [r1, #0]
 8000d58:	e01f      	b.n	8000d9a <HAL_GPIO_Init+0x2d2>
 8000d5a:	bf00      	nop
 8000d5c:	10320000 	.word	0x10320000
 8000d60:	10310000 	.word	0x10310000
 8000d64:	10220000 	.word	0x10220000
 8000d68:	10210000 	.word	0x10210000
 8000d6c:	10120000 	.word	0x10120000
 8000d70:	10110000 	.word	0x10110000
 8000d74:	40021000 	.word	0x40021000
 8000d78:	40010000 	.word	0x40010000
 8000d7c:	40010800 	.word	0x40010800
 8000d80:	40010c00 	.word	0x40010c00
 8000d84:	40011000 	.word	0x40011000
 8000d88:	40010400 	.word	0x40010400
        }
        else
        {
          CLEAR_BIT(EXTI->IMR, iocurrent);
 8000d8c:	4b0b      	ldr	r3, [pc, #44]	; (8000dbc <HAL_GPIO_Init+0x2f4>)
 8000d8e:	681a      	ldr	r2, [r3, #0]
 8000d90:	69bb      	ldr	r3, [r7, #24]
 8000d92:	43db      	mvns	r3, r3
 8000d94:	4909      	ldr	r1, [pc, #36]	; (8000dbc <HAL_GPIO_Init+0x2f4>)
 8000d96:	4013      	ands	r3, r2
 8000d98:	600b      	str	r3, [r1, #0]
        }
      }
    }

	position++;
 8000d9a:	6a7b      	ldr	r3, [r7, #36]	; 0x24
 8000d9c:	3301      	adds	r3, #1
 8000d9e:	627b      	str	r3, [r7, #36]	; 0x24
  while (((GPIO_Init->Pin) >> position) != 0x00u)
 8000da0:	683b      	ldr	r3, [r7, #0]
 8000da2:	681a      	ldr	r2, [r3, #0]
 8000da4:	6a7b      	ldr	r3, [r7, #36]	; 0x24
 8000da6:	fa22 f303 	lsr.w	r3, r2, r3
 8000daa:	2b00      	cmp	r3, #0
 8000dac:	f47f ae96 	bne.w	8000adc <HAL_GPIO_Init+0x14>
  }
}
 8000db0:	bf00      	nop
 8000db2:	bf00      	nop
 8000db4:	372c      	adds	r7, #44	; 0x2c
 8000db6:	46bd      	mov	sp, r7
 8000db8:	bc80      	pop	{r7}
 8000dba:	4770      	bx	lr
 8000dbc:	40010400 	.word	0x40010400

08000dc0 <HAL_GPIO_WritePin>:
  *            @arg GPIO_PIN_RESET: to clear the port pin
  *            @arg GPIO_PIN_SET: to set the port pin
  * @retval None
  */
void HAL_GPIO_WritePin(GPIO_TypeDef *GPIOx, uint16_t GPIO_Pin, GPIO_PinState PinState)
{
 8000dc0:	b480      	push	{r7}
 8000dc2:	b083      	sub	sp, #12
 8000dc4:	af00      	add	r7, sp, #0
 8000dc6:	6078      	str	r0, [r7, #4]
 8000dc8:	460b      	mov	r3, r1
 8000dca:	807b      	strh	r3, [r7, #2]
 8000dcc:	4613      	mov	r3, r2
 8000dce:	707b      	strb	r3, [r7, #1]
  /* Check the parameters */
  assert_param(IS_GPIO_PIN(GPIO_Pin));
  assert_param(IS_GPIO_PIN_ACTION(PinState));

  if (PinState != GPIO_PIN_RESET)
 8000dd0:	787b      	ldrb	r3, [r7, #1]
 8000dd2:	2b00      	cmp	r3, #0
 8000dd4:	d003      	beq.n	8000dde <HAL_GPIO_WritePin+0x1e>
  {
    GPIOx->BSRR = GPIO_Pin;
 8000dd6:	887a      	ldrh	r2, [r7, #2]
 8000dd8:	687b      	ldr	r3, [r7, #4]
 8000dda:	611a      	str	r2, [r3, #16]
  }
  else
  {
    GPIOx->BSRR = (uint32_t)GPIO_Pin << 16u;
  }
}
 8000ddc:	e003      	b.n	8000de6 <HAL_GPIO_WritePin+0x26>
    GPIOx->BSRR = (uint32_t)GPIO_Pin << 16u;
 8000dde:	887b      	ldrh	r3, [r7, #2]
 8000de0:	041a      	lsls	r2, r3, #16
 8000de2:	687b      	ldr	r3, [r7, #4]
 8000de4:	611a      	str	r2, [r3, #16]
}
 8000de6:	bf00      	nop
 8000de8:	370c      	adds	r7, #12
 8000dea:	46bd      	mov	sp, r7
 8000dec:	bc80      	pop	{r7}
 8000dee:	4770      	bx	lr

08000df0 <HAL_GPIO_TogglePin>:
  * @param  GPIOx: where x can be (A..G depending on device used) to select the GPIO peripheral
  * @param  GPIO_Pin: Specifies the pins to be toggled.
  * @retval None
  */
void HAL_GPIO_TogglePin(GPIO_TypeDef *GPIOx, uint16_t GPIO_Pin)
{
 8000df0:	b480      	push	{r7}
 8000df2:	b085      	sub	sp, #20
 8000df4:	af00      	add	r7, sp, #0
 8000df6:	6078      	str	r0, [r7, #4]
 8000df8:	460b      	mov	r3, r1
 8000dfa:	807b      	strh	r3, [r7, #2]

  /* Check the parameters */
  assert_param(IS_GPIO_PIN(GPIO_Pin));

  /* get current Output Data Register value */
  odr = GPIOx->ODR;
 8000dfc:	687b      	ldr	r3, [r7, #4]
 8000dfe:	68db      	ldr	r3, [r3, #12]
 8000e00:	60fb      	str	r3, [r7, #12]

  /* Set selected pins that were at low level, and reset ones that were high */
  GPIOx->BSRR = ((odr & GPIO_Pin) << GPIO_NUMBER) | (~odr & GPIO_Pin);
 8000e02:	887a      	ldrh	r2, [r7, #2]
 8000e04:	68fb      	ldr	r3, [r7, #12]
 8000e06:	4013      	ands	r3, r2
 8000e08:	041a      	lsls	r2, r3, #16
 8000e0a:	68fb      	ldr	r3, [r7, #12]
 8000e0c:	43d9      	mvns	r1, r3
 8000e0e:	887b      	ldrh	r3, [r7, #2]
 8000e10:	400b      	ands	r3, r1
 8000e12:	431a      	orrs	r2, r3
 8000e14:	687b      	ldr	r3, [r7, #4]
 8000e16:	611a      	str	r2, [r3, #16]
}
 8000e18:	bf00      	nop
 8000e1a:	3714      	adds	r7, #20
 8000e1c:	46bd      	mov	sp, r7
 8000e1e:	bc80      	pop	{r7}
 8000e20:	4770      	bx	lr
	...

08000e24 <HAL_RCC_OscConfig>:
  *         supported by this macro. User should request a transition to HSE Off
  *         first and then HSE On or HSE Bypass.
  * @retval HAL status
  */
HAL_StatusTypeDef HAL_RCC_OscConfig(RCC_OscInitTypeDef  *RCC_OscInitStruct)
{
 8000e24:	b580      	push	{r7, lr}
 8000e26:	b086      	sub	sp, #24
 8000e28:	af00      	add	r7, sp, #0
 8000e2a:	6078      	str	r0, [r7, #4]
  uint32_t tickstart;
  uint32_t pll_config;

  /* Check Null pointer */
  if (RCC_OscInitStruct == NULL)
 8000e2c:	687b      	ldr	r3, [r7, #4]
 8000e2e:	2b00      	cmp	r3, #0
 8000e30:	d101      	bne.n	8000e36 <HAL_RCC_OscConfig+0x12>
  {
    return HAL_ERROR;
 8000e32:	2301      	movs	r3, #1
 8000e34:	e272      	b.n	800131c <HAL_RCC_OscConfig+0x4f8>

  /* Check the parameters */
  assert_param(IS_RCC_OSCILLATORTYPE(RCC_OscInitStruct->OscillatorType));

  /*------------------------------- HSE Configuration ------------------------*/
  if (((RCC_OscInitStruct->OscillatorType) & RCC_OSCILLATORTYPE_HSE) == RCC_OSCILLATORTYPE_HSE)
 8000e36:	687b      	ldr	r3, [r7, #4]
 8000e38:	681b      	ldr	r3, [r3, #0]
 8000e3a:	f003 0301 	and.w	r3, r3, #1
 8000e3e:	2b00      	cmp	r3, #0
 8000e40:	f000 8087 	beq.w	8000f52 <HAL_RCC_OscConfig+0x12e>
  {
    /* Check the parameters */
    assert_param(IS_RCC_HSE(RCC_OscInitStruct->HSEState));

    /* When the HSE is used as system clock or clock source for PLL in these cases it is not allowed to be disabled */
    if ((__HAL_RCC_GET_SYSCLK_SOURCE() == RCC_SYSCLKSOURCE_STATUS_HSE)
 8000e44:	4b92      	ldr	r3, [pc, #584]	; (8001090 <HAL_RCC_OscConfig+0x26c>)
 8000e46:	685b      	ldr	r3, [r3, #4]
 8000e48:	f003 030c 	and.w	r3, r3, #12
 8000e4c:	2b04      	cmp	r3, #4
 8000e4e:	d00c      	beq.n	8000e6a <HAL_RCC_OscConfig+0x46>
        || ((__HAL_RCC_GET_SYSCLK_SOURCE() == RCC_SYSCLKSOURCE_STATUS_PLLCLK) && (__HAL_RCC_GET_PLL_OSCSOURCE() == RCC_PLLSOURCE_HSE)))
 8000e50:	4b8f      	ldr	r3, [pc, #572]	; (8001090 <HAL_RCC_OscConfig+0x26c>)
 8000e52:	685b      	ldr	r3, [r3, #4]
 8000e54:	f003 030c 	and.w	r3, r3, #12
 8000e58:	2b08      	cmp	r3, #8
 8000e5a:	d112      	bne.n	8000e82 <HAL_RCC_OscConfig+0x5e>
 8000e5c:	4b8c      	ldr	r3, [pc, #560]	; (8001090 <HAL_RCC_OscConfig+0x26c>)
 8000e5e:	685b      	ldr	r3, [r3, #4]
 8000e60:	f403 3380 	and.w	r3, r3, #65536	; 0x10000
 8000e64:	f5b3 3f80 	cmp.w	r3, #65536	; 0x10000
 8000e68:	d10b      	bne.n	8000e82 <HAL_RCC_OscConfig+0x5e>
    {
      if ((__HAL_RCC_GET_FLAG(RCC_FLAG_HSERDY) != RESET) && (RCC_OscInitStruct->HSEState == RCC_HSE_OFF))
 8000e6a:	4b89      	ldr	r3, [pc, #548]	; (8001090 <HAL_RCC_OscConfig+0x26c>)
 8000e6c:	681b      	ldr	r3, [r3, #0]
 8000e6e:	f403 3300 	and.w	r3, r3, #131072	; 0x20000
 8000e72:	2b00      	cmp	r3, #0
 8000e74:	d06c      	beq.n	8000f50 <HAL_RCC_OscConfig+0x12c>
 8000e76:	687b      	ldr	r3, [r7, #4]
 8000e78:	685b      	ldr	r3, [r3, #4]
 8000e7a:	2b00      	cmp	r3, #0
 8000e7c:	d168      	bne.n	8000f50 <HAL_RCC_OscConfig+0x12c>
      {
        return HAL_ERROR;
 8000e7e:	2301      	movs	r3, #1
 8000e80:	e24c      	b.n	800131c <HAL_RCC_OscConfig+0x4f8>
      }
    }
    else
    {
      /* Set the new HSE configuration ---------------------------------------*/
      __HAL_RCC_HSE_CONFIG(RCC_OscInitStruct->HSEState);
 8000e82:	687b      	ldr	r3, [r7, #4]
 8000e84:	685b      	ldr	r3, [r3, #4]
 8000e86:	f5b3 3f80 	cmp.w	r3, #65536	; 0x10000
 8000e8a:	d106      	bne.n	8000e9a <HAL_RCC_OscConfig+0x76>
 8000e8c:	4b80      	ldr	r3, [pc, #512]	; (8001090 <HAL_RCC_OscConfig+0x26c>)
 8000e8e:	681b      	ldr	r3, [r3, #0]
 8000e90:	4a7f      	ldr	r2, [pc, #508]	; (8001090 <HAL_RCC_OscConfig+0x26c>)
 8000e92:	f443 3380 	orr.w	r3, r3, #65536	; 0x10000
 8000e96:	6013      	str	r3, [r2, #0]
 8000e98:	e02e      	b.n	8000ef8 <HAL_RCC_OscConfig+0xd4>
 8000e9a:	687b      	ldr	r3, [r7, #4]
 8000e9c:	685b      	ldr	r3, [r3, #4]
 8000e9e:	2b00      	cmp	r3, #0
 8000ea0:	d10c      	bne.n	8000ebc <HAL_RCC_OscConfig+0x98>
 8000ea2:	4b7b      	ldr	r3, [pc, #492]	; (8001090 <HAL_RCC_OscConfig+0x26c>)
 8000ea4:	681b      	ldr	r3, [r3, #0]
 8000ea6:	4a7a      	ldr	r2, [pc, #488]	; (8001090 <HAL_RCC_OscConfig+0x26c>)
 8000ea8:	f423 3380 	bic.w	r3, r3, #65536	; 0x10000
 8000eac:	6013      	str	r3, [r2, #0]
 8000eae:	4b78      	ldr	r3, [pc, #480]	; (8001090 <HAL_RCC_OscConfig+0x26c>)
 8000eb0:	681b      	ldr	r3, [r3, #0]
 8000eb2:	4a77      	ldr	r2, [pc, #476]	; (8001090 <HAL_RCC_OscConfig+0x26c>)
 8000eb4:	f423 2380 	bic.w	r3, r3, #262144	; 0x40000
 8000eb8:	6013      	str	r3, [r2, #0]
 8000eba:	e01d      	b.n	8000ef8 <HAL_RCC_OscConfig+0xd4>
 8000ebc:	687b      	ldr	r3, [r7, #4]
 8000ebe:	685b      	ldr	r3, [r3, #4]
 8000ec0:	f5b3 2fa0 	cmp.w	r3, #327680	; 0x50000
 8000ec4:	d10c      	bne.n	8000ee0 <HAL_RCC_OscConfig+0xbc>
 8000ec6:	4b72      	ldr	r3, [pc, #456]	; (8001090 <HAL_RCC_OscConfig+0x26c>)
 8000ec8:	681b      	ldr	r3, [r3, #0]
 8000eca:	4a71      	ldr	r2, [pc, #452]	; (8001090 <HAL_RCC_OscConfig+0x26c>)
 8000ecc:	f443 2380 	orr.w	r3, r3, #262144	; 0x40000
 8000ed0:	6013      	str	r3, [r2, #0]
 8000ed2:	4b6f      	ldr	r3, [pc, #444]	; (8001090 <HAL_RCC_OscConfig+0x26c>)
 8000ed4:	681b      	ldr	r3, [r3, #0]
 8000ed6:	4a6e      	ldr	r2, [pc, #440]	; (8001090 <HAL_RCC_OscConfig+0x26c>)
 8000ed8:	f443 3380 	orr.w	r3, r3, #65536	; 0x10000
 8000edc:	6013      	str	r3, [r2, #0]
 8000ede:	e00b      	b.n	8000ef8 <HAL_RCC_OscConfig+0xd4>
 8000ee0:	4b6b      	ldr	r3, [pc, #428]	; (8001090 <HAL_RCC_OscConfig+0x26c>)
 8000ee2:	681b      	ldr	r3, [r3, #0]
 8000ee4:	4a6a      	ldr	r2, [pc, #424]	; (8001090 <HAL_RCC_OscConfig+0x26c>)
 8000ee6:	f423 3380 	bic.w	r3, r3, #65536	; 0x10000
 8000eea:	6013      	str	r3, [r2, #0]
 8000eec:	4b68      	ldr	r3, [pc, #416]	; (8001090 <HAL_RCC_OscConfig+0x26c>)
 8000eee:	681b      	ldr	r3, [r3, #0]
 8000ef0:	4a67      	ldr	r2, [pc, #412]	; (8001090 <HAL_RCC_OscConfig+0x26c>)
 8000ef2:	f423 2380 	bic.w	r3, r3, #262144	; 0x40000
 8000ef6:	6013      	str	r3, [r2, #0]


      /* Check the HSE State */
      if (RCC_OscInitStruct->HSEState != RCC_HSE_OFF)
 8000ef8:	687b      	ldr	r3, [r7, #4]
 8000efa:	685b      	ldr	r3, [r3, #4]
 8000efc:	2b00      	cmp	r3, #0
 8000efe:	d013      	beq.n	8000f28 <HAL_RCC_OscConfig+0x104>
      {
        /* Get Start Tick */
        tickstart = HAL_GetTick();
 8000f00:	f7ff fcca 	bl	8000898 <HAL_GetTick>
 8000f04:	6138      	str	r0, [r7, #16]

        /* Wait till HSE is ready */
        while (__HAL_RCC_GET_FLAG(RCC_FLAG_HSERDY) == RESET)
 8000f06:	e008      	b.n	8000f1a <HAL_RCC_OscConfig+0xf6>
        {
          if ((HAL_GetTick() - tickstart) > HSE_TIMEOUT_VALUE)
 8000f08:	f7ff fcc6 	bl	8000898 <HAL_GetTick>
 8000f0c:	4602      	mov	r2, r0
 8000f0e:	693b      	ldr	r3, [r7, #16]
 8000f10:	1ad3      	subs	r3, r2, r3
 8000f12:	2b64      	cmp	r3, #100	; 0x64
 8000f14:	d901      	bls.n	8000f1a <HAL_RCC_OscConfig+0xf6>
          {
            return HAL_TIMEOUT;
 8000f16:	2303      	movs	r3, #3
 8000f18:	e200      	b.n	800131c <HAL_RCC_OscConfig+0x4f8>
        while (__HAL_RCC_GET_FLAG(RCC_FLAG_HSERDY) == RESET)
 8000f1a:	4b5d      	ldr	r3, [pc, #372]	; (8001090 <HAL_RCC_OscConfig+0x26c>)
 8000f1c:	681b      	ldr	r3, [r3, #0]
 8000f1e:	f403 3300 	and.w	r3, r3, #131072	; 0x20000
 8000f22:	2b00      	cmp	r3, #0
 8000f24:	d0f0      	beq.n	8000f08 <HAL_RCC_OscConfig+0xe4>
 8000f26:	e014      	b.n	8000f52 <HAL_RCC_OscConfig+0x12e>
        }
      }
      else
      {
        /* Get Start Tick */
        tickstart = HAL_GetTick();
 8000f28:	f7ff fcb6 	bl	8000898 <HAL_GetTick>
 8000f2c:	6138      	str	r0, [r7, #16]

        /* Wait till HSE is disabled */
        while (__HAL_RCC_GET_FLAG(RCC_FLAG_HSERDY) != RESET)
 8000f2e:	e008      	b.n	8000f42 <HAL_RCC_OscConfig+0x11e>
        {
          if ((HAL_GetTick() - tickstart) > HSE_TIMEOUT_VALUE)
 8000f30:	f7ff fcb2 	bl	8000898 <HAL_GetTick>
 8000f34:	4602      	mov	r2, r0
 8000f36:	693b      	ldr	r3, [r7, #16]
 8000f38:	1ad3      	subs	r3, r2, r3
 8000f3a:	2b64      	cmp	r3, #100	; 0x64
 8000f3c:	d901      	bls.n	8000f42 <HAL_RCC_OscConfig+0x11e>
          {
            return HAL_TIMEOUT;
 8000f3e:	2303      	movs	r3, #3
 8000f40:	e1ec      	b.n	800131c <HAL_RCC_OscConfig+0x4f8>
        while (__HAL_RCC_GET_FLAG(RCC_FLAG_HSERDY) != RESET)
 8000f42:	4b53      	ldr	r3, [pc, #332]	; (8001090 <HAL_RCC_OscConfig+0x26c>)
 8000f44:	681b      	ldr	r3, [r3, #0]
 8000f46:	f403 3300 	and.w	r3, r3, #131072	; 0x20000
 8000f4a:	2b00      	cmp	r3, #0
 8000f4c:	d1f0      	bne.n	8000f30 <HAL_RCC_OscConfig+0x10c>
 8000f4e:	e000      	b.n	8000f52 <HAL_RCC_OscConfig+0x12e>
      if ((__HAL_RCC_GET_FLAG(RCC_FLAG_HSERDY) != RESET) && (RCC_OscInitStruct->HSEState == RCC_HSE_OFF))
 8000f50:	bf00      	nop
        }
      }
    }
  }
  /*----------------------------- HSI Configuration --------------------------*/
  if (((RCC_OscInitStruct->OscillatorType) & RCC_OSCILLATORTYPE_HSI) == RCC_OSCILLATORTYPE_HSI)
 8000f52:	687b      	ldr	r3, [r7, #4]
 8000f54:	681b      	ldr	r3, [r3, #0]
 8000f56:	f003 0302 	and.w	r3, r3, #2
 8000f5a:	2b00      	cmp	r3, #0
 8000f5c:	d063      	beq.n	8001026 <HAL_RCC_OscConfig+0x202>
    /* Check the parameters */
    assert_param(IS_RCC_HSI(RCC_OscInitStruct->HSIState));
    assert_param(IS_RCC_CALIBRATION_VALUE(RCC_OscInitStruct->HSICalibrationValue));

    /* Check if HSI is used as system clock or as PLL source when PLL is selected as system clock */
    if ((__HAL_RCC_GET_SYSCLK_SOURCE() == RCC_SYSCLKSOURCE_STATUS_HSI)
 8000f5e:	4b4c      	ldr	r3, [pc, #304]	; (8001090 <HAL_RCC_OscConfig+0x26c>)
 8000f60:	685b      	ldr	r3, [r3, #4]
 8000f62:	f003 030c 	and.w	r3, r3, #12
 8000f66:	2b00      	cmp	r3, #0
 8000f68:	d00b      	beq.n	8000f82 <HAL_RCC_OscConfig+0x15e>
        || ((__HAL_RCC_GET_SYSCLK_SOURCE() == RCC_SYSCLKSOURCE_STATUS_PLLCLK) && (__HAL_RCC_GET_PLL_OSCSOURCE() == RCC_PLLSOURCE_HSI_DIV2)))
 8000f6a:	4b49      	ldr	r3, [pc, #292]	; (8001090 <HAL_RCC_OscConfig+0x26c>)
 8000f6c:	685b      	ldr	r3, [r3, #4]
 8000f6e:	f003 030c 	and.w	r3, r3, #12
 8000f72:	2b08      	cmp	r3, #8
 8000f74:	d11c      	bne.n	8000fb0 <HAL_RCC_OscConfig+0x18c>
 8000f76:	4b46      	ldr	r3, [pc, #280]	; (8001090 <HAL_RCC_OscConfig+0x26c>)
 8000f78:	685b      	ldr	r3, [r3, #4]
 8000f7a:	f403 3380 	and.w	r3, r3, #65536	; 0x10000
 8000f7e:	2b00      	cmp	r3, #0
 8000f80:	d116      	bne.n	8000fb0 <HAL_RCC_OscConfig+0x18c>
    {
      /* When HSI is used as system clock it will not disabled */
      if ((__HAL_RCC_GET_FLAG(RCC_FLAG_HSIRDY) != RESET) && (RCC_OscInitStruct->HSIState != RCC_HSI_ON))
 8000f82:	4b43      	ldr	r3, [pc, #268]	; (8001090 <HAL_RCC_OscConfig+0x26c>)
 8000f84:	681b      	ldr	r3, [r3, #0]
 8000f86:	f003 0302 	and.w	r3, r3, #2
 8000f8a:	2b00      	cmp	r3, #0
 8000f8c:	d005      	beq.n	8000f9a <HAL_RCC_OscConfig+0x176>
 8000f8e:	687b      	ldr	r3, [r7, #4]
 8000f90:	691b      	ldr	r3, [r3, #16]
 8000f92:	2b01      	cmp	r3, #1
 8000f94:	d001      	beq.n	8000f9a <HAL_RCC_OscConfig+0x176>
      {
        return HAL_ERROR;
 8000f96:	2301      	movs	r3, #1
 8000f98:	e1c0      	b.n	800131c <HAL_RCC_OscConfig+0x4f8>
      }
      /* Otherwise, just the calibration is allowed */
      else
      {
        /* Adjusts the Internal High Speed oscillator (HSI) calibration value.*/
        __HAL_RCC_HSI_CALIBRATIONVALUE_ADJUST(RCC_OscInitStruct->HSICalibrationValue);
 8000f9a:	4b3d      	ldr	r3, [pc, #244]	; (8001090 <HAL_RCC_OscConfig+0x26c>)
 8000f9c:	681b      	ldr	r3, [r3, #0]
 8000f9e:	f023 02f8 	bic.w	r2, r3, #248	; 0xf8
 8000fa2:	687b      	ldr	r3, [r7, #4]
 8000fa4:	695b      	ldr	r3, [r3, #20]
 8000fa6:	00db      	lsls	r3, r3, #3
 8000fa8:	4939      	ldr	r1, [pc, #228]	; (8001090 <HAL_RCC_OscConfig+0x26c>)
 8000faa:	4313      	orrs	r3, r2
 8000fac:	600b      	str	r3, [r1, #0]
      if ((__HAL_RCC_GET_FLAG(RCC_FLAG_HSIRDY) != RESET) && (RCC_OscInitStruct->HSIState != RCC_HSI_ON))
 8000fae:	e03a      	b.n	8001026 <HAL_RCC_OscConfig+0x202>
      }
    }
    else
    {
      /* Check the HSI State */
      if (RCC_OscInitStruct->HSIState != RCC_HSI_OFF)
 8000fb0:	687b      	ldr	r3, [r7, #4]
 8000fb2:	691b      	ldr	r3, [r3, #16]
 8000fb4:	2b00      	cmp	r3, #0
 8000fb6:	d020      	beq.n	8000ffa <HAL_RCC_OscConfig+0x1d6>
      {
        /* Enable the Internal High Speed oscillator (HSI). */
        __HAL_RCC_HSI_ENABLE();
 8000fb8:	4b36      	ldr	r3, [pc, #216]	; (8001094 <HAL_RCC_OscConfig+0x270>)
 8000fba:	2201      	movs	r2, #1
 8000fbc:	601a      	str	r2, [r3, #0]

        /* Get Start Tick */
        tickstart = HAL_GetTick();
 8000fbe:	f7ff fc6b 	bl	8000898 <HAL_GetTick>
 8000fc2:	6138      	str	r0, [r7, #16]

        /* Wait till HSI is ready */
        while (__HAL_RCC_GET_FLAG(RCC_FLAG_HSIRDY) == RESET)
 8000fc4:	e008      	b.n	8000fd8 <HAL_RCC_OscConfig+0x1b4>
        {
          if ((HAL_GetTick() - tickstart) > HSI_TIMEOUT_VALUE)
 8000fc6:	f7ff fc67 	bl	8000898 <HAL_GetTick>
 8000fca:	4602      	mov	r2, r0
 8000fcc:	693b      	ldr	r3, [r7, #16]
 8000fce:	1ad3      	subs	r3, r2, r3
 8000fd0:	2b02      	cmp	r3, #2
 8000fd2:	d901      	bls.n	8000fd8 <HAL_RCC_OscConfig+0x1b4>
          {
            return HAL_TIMEOUT;
 8000fd4:	2303      	movs	r3, #3
 8000fd6:	e1a1      	b.n	800131c <HAL_RCC_OscConfig+0x4f8>
        while (__HAL_RCC_GET_FLAG(RCC_FLAG_HSIRDY) == RESET)
 8000fd8:	4b2d      	ldr	r3, [pc, #180]	; (8001090 <HAL_RCC_OscConfig+0x26c>)
 8000fda:	681b      	ldr	r3, [r3, #0]
 8000fdc:	f003 0302 	and.w	r3, r3, #2
 8000fe0:	2b00      	cmp	r3, #0
 8000fe2:	d0f0      	beq.n	8000fc6 <HAL_RCC_OscConfig+0x1a2>
          }
        }

        /* Adjusts the Internal High Speed oscillator (HSI) calibration value.*/
        __HAL_RCC_HSI_CALIBRATIONVALUE_ADJUST(RCC_OscInitStruct->HSICalibrationValue);
 8000fe4:	4b2a      	ldr	r3, [pc, #168]	; (8001090 <HAL_RCC_OscConfig+0x26c>)
 8000fe6:	681b      	ldr	r3, [r3, #0]
 8000fe8:	f023 02f8 	bic.w	r2, r3, #248	; 0xf8
 8000fec:	687b      	ldr	r3, [r7, #4]
 8000fee:	695b      	ldr	r3, [r3, #20]
 8000ff0:	00db      	lsls	r3, r3, #3
 8000ff2:	4927      	ldr	r1, [pc, #156]	; (8001090 <HAL_RCC_OscConfig+0x26c>)
 8000ff4:	4313      	orrs	r3, r2
 8000ff6:	600b      	str	r3, [r1, #0]
 8000ff8:	e015      	b.n	8001026 <HAL_RCC_OscConfig+0x202>
      }
      else
      {
        /* Disable the Internal High Speed oscillator (HSI). */
        __HAL_RCC_HSI_DISABLE();
 8000ffa:	4b26      	ldr	r3, [pc, #152]	; (8001094 <HAL_RCC_OscConfig+0x270>)
 8000ffc:	2200      	movs	r2, #0
 8000ffe:	601a      	str	r2, [r3, #0]

        /* Get Start Tick */
        tickstart = HAL_GetTick();
 8001000:	f7ff fc4a 	bl	8000898 <HAL_GetTick>
 8001004:	6138      	str	r0, [r7, #16]

        /* Wait till HSI is disabled */
        while (__HAL_RCC_GET_FLAG(RCC_FLAG_HSIRDY) != RESET)
 8001006:	e008      	b.n	800101a <HAL_RCC_OscConfig+0x1f6>
        {
          if ((HAL_GetTick() - tickstart) > HSI_TIMEOUT_VALUE)
 8001008:	f7ff fc46 	bl	8000898 <HAL_GetTick>
 800100c:	4602      	mov	r2, r0
 800100e:	693b      	ldr	r3, [r7, #16]
 8001010:	1ad3      	subs	r3, r2, r3
 8001012:	2b02      	cmp	r3, #2
 8001014:	d901      	bls.n	800101a <HAL_RCC_OscConfig+0x1f6>
          {
            return HAL_TIMEOUT;
 8001016:	2303      	movs	r3, #3
 8001018:	e180      	b.n	800131c <HAL_RCC_OscConfig+0x4f8>
        while (__HAL_RCC_GET_FLAG(RCC_FLAG_HSIRDY) != RESET)
 800101a:	4b1d      	ldr	r3, [pc, #116]	; (8001090 <HAL_RCC_OscConfig+0x26c>)
 800101c:	681b      	ldr	r3, [r3, #0]
 800101e:	f003 0302 	and.w	r3, r3, #2
 8001022:	2b00      	cmp	r3, #0
 8001024:	d1f0      	bne.n	8001008 <HAL_RCC_OscConfig+0x1e4>
        }
      }
    }
  }
  /*------------------------------ LSI Configuration -------------------------*/
  if (((RCC_OscInitStruct->OscillatorType) & RCC_OSCILLATORTYPE_LSI) == RCC_OSCILLATORTYPE_LSI)
 8001026:	687b      	ldr	r3, [r7, #4]
 8001028:	681b      	ldr	r3, [r3, #0]
 800102a:	f003 0308 	and.w	r3, r3, #8
 800102e:	2b00      	cmp	r3, #0
 8001030:	d03a      	beq.n	80010a8 <HAL_RCC_OscConfig+0x284>
  {
    /* Check the parameters */
    assert_param(IS_RCC_LSI(RCC_OscInitStruct->LSIState));

    /* Check the LSI State */
    if (RCC_OscInitStruct->LSIState != RCC_LSI_OFF)
 8001032:	687b      	ldr	r3, [r7, #4]
 8001034:	699b      	ldr	r3, [r3, #24]
 8001036:	2b00      	cmp	r3, #0
 8001038:	d019      	beq.n	800106e <HAL_RCC_OscConfig+0x24a>
    {
      /* Enable the Internal Low Speed oscillator (LSI). */
      __HAL_RCC_LSI_ENABLE();
 800103a:	4b17      	ldr	r3, [pc, #92]	; (8001098 <HAL_RCC_OscConfig+0x274>)
 800103c:	2201      	movs	r2, #1
 800103e:	601a      	str	r2, [r3, #0]

      /* Get Start Tick */
      tickstart = HAL_GetTick();
 8001040:	f7ff fc2a 	bl	8000898 <HAL_GetTick>
 8001044:	6138      	str	r0, [r7, #16]

      /* Wait till LSI is ready */
      while (__HAL_RCC_GET_FLAG(RCC_FLAG_LSIRDY) == RESET)
 8001046:	e008      	b.n	800105a <HAL_RCC_OscConfig+0x236>
      {
        if ((HAL_GetTick() - tickstart) > LSI_TIMEOUT_VALUE)
 8001048:	f7ff fc26 	bl	8000898 <HAL_GetTick>
 800104c:	4602      	mov	r2, r0
 800104e:	693b      	ldr	r3, [r7, #16]
 8001050:	1ad3      	subs	r3, r2, r3
 8001052:	2b02      	cmp	r3, #2
 8001054:	d901      	bls.n	800105a <HAL_RCC_OscConfig+0x236>
        {
          return HAL_TIMEOUT;
 8001056:	2303      	movs	r3, #3
 8001058:	e160      	b.n	800131c <HAL_RCC_OscConfig+0x4f8>
      while (__HAL_RCC_GET_FLAG(RCC_FLAG_LSIRDY) == RESET)
 800105a:	4b0d      	ldr	r3, [pc, #52]	; (8001090 <HAL_RCC_OscConfig+0x26c>)
 800105c:	6a5b      	ldr	r3, [r3, #36]	; 0x24
 800105e:	f003 0302 	and.w	r3, r3, #2
 8001062:	2b00      	cmp	r3, #0
 8001064:	d0f0      	beq.n	8001048 <HAL_RCC_OscConfig+0x224>
        }
      }
      /*  To have a fully stabilized clock in the specified range, a software delay of 1ms
          should be added.*/
      RCC_Delay(1);
 8001066:	2001      	movs	r0, #1
 8001068:	f000 fa9c 	bl	80015a4 <RCC_Delay>
 800106c:	e01c      	b.n	80010a8 <HAL_RCC_OscConfig+0x284>
    }
    else
    {
      /* Disable the Internal Low Speed oscillator (LSI). */
      __HAL_RCC_LSI_DISABLE();
 800106e:	4b0a      	ldr	r3, [pc, #40]	; (8001098 <HAL_RCC_OscConfig+0x274>)
 8001070:	2200      	movs	r2, #0
 8001072:	601a      	str	r2, [r3, #0]

      /* Get Start Tick */
      tickstart = HAL_GetTick();
 8001074:	f7ff fc10 	bl	8000898 <HAL_GetTick>
 8001078:	6138      	str	r0, [r7, #16]

      /* Wait till LSI is disabled */
      while (__HAL_RCC_GET_FLAG(RCC_FLAG_LSIRDY) != RESET)
 800107a:	e00f      	b.n	800109c <HAL_RCC_OscConfig+0x278>
      {
        if ((HAL_GetTick() - tickstart) > LSI_TIMEOUT_VALUE)
 800107c:	f7ff fc0c 	bl	8000898 <HAL_GetTick>
 8001080:	4602      	mov	r2, r0
 8001082:	693b      	ldr	r3, [r7, #16]
 8001084:	1ad3      	subs	r3, r2, r3
 8001086:	2b02      	cmp	r3, #2
 8001088:	d908      	bls.n	800109c <HAL_RCC_OscConfig+0x278>
        {
          return HAL_TIMEOUT;
 800108a:	2303      	movs	r3, #3
 800108c:	e146      	b.n	800131c <HAL_RCC_OscConfig+0x4f8>
 800108e:	bf00      	nop
 8001090:	40021000 	.word	0x40021000
 8001094:	42420000 	.word	0x42420000
 8001098:	42420480 	.word	0x42420480
      while (__HAL_RCC_GET_FLAG(RCC_FLAG_LSIRDY) != RESET)
 800109c:	4b92      	ldr	r3, [pc, #584]	; (80012e8 <HAL_RCC_OscConfig+0x4c4>)
 800109e:	6a5b      	ldr	r3, [r3, #36]	; 0x24
 80010a0:	f003 0302 	and.w	r3, r3, #2
 80010a4:	2b00      	cmp	r3, #0
 80010a6:	d1e9      	bne.n	800107c <HAL_RCC_OscConfig+0x258>
        }
      }
    }
  }
  /*------------------------------ LSE Configuration -------------------------*/
  if (((RCC_OscInitStruct->OscillatorType) & RCC_OSCILLATORTYPE_LSE) == RCC_OSCILLATORTYPE_LSE)
 80010a8:	687b      	ldr	r3, [r7, #4]
 80010aa:	681b      	ldr	r3, [r3, #0]
 80010ac:	f003 0304 	and.w	r3, r3, #4
 80010b0:	2b00      	cmp	r3, #0
 80010b2:	f000 80a6 	beq.w	8001202 <HAL_RCC_OscConfig+0x3de>
  {
    FlagStatus       pwrclkchanged = RESET;
 80010b6:	2300      	movs	r3, #0
 80010b8:	75fb      	strb	r3, [r7, #23]
    /* Check the parameters */
    assert_param(IS_RCC_LSE(RCC_OscInitStruct->LSEState));

    /* Update LSE configuration in Backup Domain control register    */
    /* Requires to enable write access to Backup Domain of necessary */
    if (__HAL_RCC_PWR_IS_CLK_DISABLED())
 80010ba:	4b8b      	ldr	r3, [pc, #556]	; (80012e8 <HAL_RCC_OscConfig+0x4c4>)
 80010bc:	69db      	ldr	r3, [r3, #28]
 80010be:	f003 5380 	and.w	r3, r3, #268435456	; 0x10000000
 80010c2:	2b00      	cmp	r3, #0
 80010c4:	d10d      	bne.n	80010e2 <HAL_RCC_OscConfig+0x2be>
    {
      __HAL_RCC_PWR_CLK_ENABLE();
 80010c6:	4b88      	ldr	r3, [pc, #544]	; (80012e8 <HAL_RCC_OscConfig+0x4c4>)
 80010c8:	69db      	ldr	r3, [r3, #28]
 80010ca:	4a87      	ldr	r2, [pc, #540]	; (80012e8 <HAL_RCC_OscConfig+0x4c4>)
 80010cc:	f043 5380 	orr.w	r3, r3, #268435456	; 0x10000000
 80010d0:	61d3      	str	r3, [r2, #28]
 80010d2:	4b85      	ldr	r3, [pc, #532]	; (80012e8 <HAL_RCC_OscConfig+0x4c4>)
 80010d4:	69db      	ldr	r3, [r3, #28]
 80010d6:	f003 5380 	and.w	r3, r3, #268435456	; 0x10000000
 80010da:	60bb      	str	r3, [r7, #8]
 80010dc:	68bb      	ldr	r3, [r7, #8]
      pwrclkchanged = SET;
 80010de:	2301      	movs	r3, #1
 80010e0:	75fb      	strb	r3, [r7, #23]
    }

    if (HAL_IS_BIT_CLR(PWR->CR, PWR_CR_DBP))
 80010e2:	4b82      	ldr	r3, [pc, #520]	; (80012ec <HAL_RCC_OscConfig+0x4c8>)
 80010e4:	681b      	ldr	r3, [r3, #0]
 80010e6:	f403 7380 	and.w	r3, r3, #256	; 0x100
 80010ea:	2b00      	cmp	r3, #0
 80010ec:	d118      	bne.n	8001120 <HAL_RCC_OscConfig+0x2fc>
    {
      /* Enable write access to Backup domain */
      SET_BIT(PWR->CR, PWR_CR_DBP);
 80010ee:	4b7f      	ldr	r3, [pc, #508]	; (80012ec <HAL_RCC_OscConfig+0x4c8>)
 80010f0:	681b      	ldr	r3, [r3, #0]
 80010f2:	4a7e      	ldr	r2, [pc, #504]	; (80012ec <HAL_RCC_OscConfig+0x4c8>)
 80010f4:	f443 7380 	orr.w	r3, r3, #256	; 0x100
 80010f8:	6013      	str	r3, [r2, #0]

      /* Wait for Backup domain Write protection disable */
      tickstart = HAL_GetTick();
 80010fa:	f7ff fbcd 	bl	8000898 <HAL_GetTick>
 80010fe:	6138      	str	r0, [r7, #16]

      while (HAL_IS_BIT_CLR(PWR->CR, PWR_CR_DBP))
 8001100:	e008      	b.n	8001114 <HAL_RCC_OscConfig+0x2f0>
      {
        if ((HAL_GetTick() - tickstart) > RCC_DBP_TIMEOUT_VALUE)
 8001102:	f7ff fbc9 	bl	8000898 <HAL_GetTick>
 8001106:	4602      	mov	r2, r0
 8001108:	693b      	ldr	r3, [r7, #16]
 800110a:	1ad3      	subs	r3, r2, r3
 800110c:	2b64      	cmp	r3, #100	; 0x64
 800110e:	d901      	bls.n	8001114 <HAL_RCC_OscConfig+0x2f0>
        {
          return HAL_TIMEOUT;
 8001110:	2303      	movs	r3, #3
 8001112:	e103      	b.n	800131c <HAL_RCC_OscConfig+0x4f8>
      while (HAL_IS_BIT_CLR(PWR->CR, PWR_CR_DBP))
 8001114:	4b75      	ldr	r3, [pc, #468]	; (80012ec <HAL_RCC_OscConfig+0x4c8>)
 8001116:	681b      	ldr	r3, [r3, #0]
 8001118:	f403 7380 	and.w	r3, r3, #256	; 0x100
 800111c:	2b00      	cmp	r3, #0
 800111e:	d0f0      	beq.n	8001102 <HAL_RCC_OscConfig+0x2de>
        }
      }
    }

    /* Set the new LSE configuration -----------------------------------------*/
    __HAL_RCC_LSE_CONFIG(RCC_OscInitStruct->LSEState);
 8001120:	687b      	ldr	r3, [r7, #4]
 8001122:	68db      	ldr	r3, [r3, #12]
 8001124:	2b01      	cmp	r3, #1
 8001126:	d106      	bne.n	8001136 <HAL_RCC_OscConfig+0x312>
 8001128:	4b6f      	ldr	r3, [pc, #444]	; (80012e8 <HAL_RCC_OscConfig+0x4c4>)
 800112a:	6a1b      	ldr	r3, [r3, #32]
 800112c:	4a6e      	ldr	r2, [pc, #440]	; (80012e8 <HAL_RCC_OscConfig+0x4c4>)
 800112e:	f043 0301 	orr.w	r3, r3, #1
 8001132:	6213      	str	r3, [r2, #32]
 8001134:	e02d      	b.n	8001192 <HAL_RCC_OscConfig+0x36e>
 8001136:	687b      	ldr	r3, [r7, #4]
 8001138:	68db      	ldr	r3, [r3, #12]
 800113a:	2b00      	cmp	r3, #0
 800113c:	d10c      	bne.n	8001158 <HAL_RCC_OscConfig+0x334>
 800113e:	4b6a      	ldr	r3, [pc, #424]	; (80012e8 <HAL_RCC_OscConfig+0x4c4>)
 8001140:	6a1b      	ldr	r3, [r3, #32]
 8001142:	4a69      	ldr	r2, [pc, #420]	; (80012e8 <HAL_RCC_OscConfig+0x4c4>)
 8001144:	f023 0301 	bic.w	r3, r3, #1
 8001148:	6213      	str	r3, [r2, #32]
 800114a:	4b67      	ldr	r3, [pc, #412]	; (80012e8 <HAL_RCC_OscConfig+0x4c4>)
 800114c:	6a1b      	ldr	r3, [r3, #32]
 800114e:	4a66      	ldr	r2, [pc, #408]	; (80012e8 <HAL_RCC_OscConfig+0x4c4>)
 8001150:	f023 0304 	bic.w	r3, r3, #4
 8001154:	6213      	str	r3, [r2, #32]
 8001156:	e01c      	b.n	8001192 <HAL_RCC_OscConfig+0x36e>
 8001158:	687b      	ldr	r3, [r7, #4]
 800115a:	68db      	ldr	r3, [r3, #12]
 800115c:	2b05      	cmp	r3, #5
 800115e:	d10c      	bne.n	800117a <HAL_RCC_OscConfig+0x356>
 8001160:	4b61      	ldr	r3, [pc, #388]	; (80012e8 <HAL_RCC_OscConfig+0x4c4>)
 8001162:	6a1b      	ldr	r3, [r3, #32]
 8001164:	4a60      	ldr	r2, [pc, #384]	; (80012e8 <HAL_RCC_OscConfig+0x4c4>)
 8001166:	f043 0304 	orr.w	r3, r3, #4
 800116a:	6213      	str	r3, [r2, #32]
 800116c:	4b5e      	ldr	r3, [pc, #376]	; (80012e8 <HAL_RCC_OscConfig+0x4c4>)
 800116e:	6a1b      	ldr	r3, [r3, #32]
 8001170:	4a5d      	ldr	r2, [pc, #372]	; (80012e8 <HAL_RCC_OscConfig+0x4c4>)
 8001172:	f043 0301 	orr.w	r3, r3, #1
 8001176:	6213      	str	r3, [r2, #32]
 8001178:	e00b      	b.n	8001192 <HAL_RCC_OscConfig+0x36e>
 800117a:	4b5b      	ldr	r3, [pc, #364]	; (80012e8 <HAL_RCC_OscConfig+0x4c4>)
 800117c:	6a1b      	ldr	r3, [r3, #32]
 800117e:	4a5a      	ldr	r2, [pc, #360]	; (80012e8 <HAL_RCC_OscConfig+0x4c4>)
 8001180:	f023 0301 	bic.w	r3, r3, #1
 8001184:	6213      	str	r3, [r2, #32]
 8001186:	4b58      	ldr	r3, [pc, #352]	; (80012e8 <HAL_RCC_OscConfig+0x4c4>)
 8001188:	6a1b      	ldr	r3, [r3, #32]
 800118a:	4a57      	ldr	r2, [pc, #348]	; (80012e8 <HAL_RCC_OscConfig+0x4c4>)
 800118c:	f023 0304 	bic.w	r3, r3, #4
 8001190:	6213      	str	r3, [r2, #32]
    /* Check the LSE State */
    if (RCC_OscInitStruct->LSEState != RCC_LSE_OFF)
 8001192:	687b      	ldr	r3, [r7, #4]
 8001194:	68db      	ldr	r3, [r3, #12]
 8001196:	2b00      	cmp	r3, #0
 8001198:	d015      	beq.n	80011c6 <HAL_RCC_OscConfig+0x3a2>
    {
      /* Get Start Tick */
      tickstart = HAL_GetTick();
 800119a:	f7ff fb7d 	bl	8000898 <HAL_GetTick>
 800119e:	6138      	str	r0, [r7, #16]

      /* Wait till LSE is ready */
      while (__HAL_RCC_GET_FLAG(RCC_FLAG_LSERDY) == RESET)
 80011a0:	e00a      	b.n	80011b8 <HAL_RCC_OscConfig+0x394>
      {
        if ((HAL_GetTick() - tickstart) > RCC_LSE_TIMEOUT_VALUE)
 80011a2:	f7ff fb79 	bl	8000898 <HAL_GetTick>
 80011a6:	4602      	mov	r2, r0
 80011a8:	693b      	ldr	r3, [r7, #16]
 80011aa:	1ad3      	subs	r3, r2, r3
 80011ac:	f241 3288 	movw	r2, #5000	; 0x1388
 80011b0:	4293      	cmp	r3, r2
 80011b2:	d901      	bls.n	80011b8 <HAL_RCC_OscConfig+0x394>
        {
          return HAL_TIMEOUT;
 80011b4:	2303      	movs	r3, #3
 80011b6:	e0b1      	b.n	800131c <HAL_RCC_OscConfig+0x4f8>
      while (__HAL_RCC_GET_FLAG(RCC_FLAG_LSERDY) == RESET)
 80011b8:	4b4b      	ldr	r3, [pc, #300]	; (80012e8 <HAL_RCC_OscConfig+0x4c4>)
 80011ba:	6a1b      	ldr	r3, [r3, #32]
 80011bc:	f003 0302 	and.w	r3, r3, #2
 80011c0:	2b00      	cmp	r3, #0
 80011c2:	d0ee      	beq.n	80011a2 <HAL_RCC_OscConfig+0x37e>
 80011c4:	e014      	b.n	80011f0 <HAL_RCC_OscConfig+0x3cc>
      }
    }
    else
    {
      /* Get Start Tick */
      tickstart = HAL_GetTick();
 80011c6:	f7ff fb67 	bl	8000898 <HAL_GetTick>
 80011ca:	6138      	str	r0, [r7, #16]

      /* Wait till LSE is disabled */
      while (__HAL_RCC_GET_FLAG(RCC_FLAG_LSERDY) != RESET)
 80011cc:	e00a      	b.n	80011e4 <HAL_RCC_OscConfig+0x3c0>
      {
        if ((HAL_GetTick() - tickstart) > RCC_LSE_TIMEOUT_VALUE)
 80011ce:	f7ff fb63 	bl	8000898 <HAL_GetTick>
 80011d2:	4602      	mov	r2, r0
 80011d4:	693b      	ldr	r3, [r7, #16]
 80011d6:	1ad3      	subs	r3, r2, r3
 80011d8:	f241 3288 	movw	r2, #5000	; 0x1388
 80011dc:	4293      	cmp	r3, r2
 80011de:	d901      	bls.n	80011e4 <HAL_RCC_OscConfig+0x3c0>
        {
          return HAL_TIMEOUT;
 80011e0:	2303      	movs	r3, #3
 80011e2:	e09b      	b.n	800131c <HAL_RCC_OscConfig+0x4f8>
      while (__HAL_RCC_GET_FLAG(RCC_FLAG_LSERDY) != RESET)
 80011e4:	4b40      	ldr	r3, [pc, #256]	; (80012e8 <HAL_RCC_OscConfig+0x4c4>)
 80011e6:	6a1b      	ldr	r3, [r3, #32]
 80011e8:	f003 0302 	and.w	r3, r3, #2
 80011ec:	2b00      	cmp	r3, #0
 80011ee:	d1ee      	bne.n	80011ce <HAL_RCC_OscConfig+0x3aa>
        }
      }
    }

    /* Require to disable power clock if necessary */
    if (pwrclkchanged == SET)
 80011f0:	7dfb      	ldrb	r3, [r7, #23]
 80011f2:	2b01      	cmp	r3, #1
 80011f4:	d105      	bne.n	8001202 <HAL_RCC_OscConfig+0x3de>
    {
      __HAL_RCC_PWR_CLK_DISABLE();
 80011f6:	4b3c      	ldr	r3, [pc, #240]	; (80012e8 <HAL_RCC_OscConfig+0x4c4>)
 80011f8:	69db      	ldr	r3, [r3, #28]
 80011fa:	4a3b      	ldr	r2, [pc, #236]	; (80012e8 <HAL_RCC_OscConfig+0x4c4>)
 80011fc:	f023 5380 	bic.w	r3, r3, #268435456	; 0x10000000
 8001200:	61d3      	str	r3, [r2, #28]

#endif /* RCC_CR_PLL2ON */
  /*-------------------------------- PLL Configuration -----------------------*/
  /* Check the parameters */
  assert_param(IS_RCC_PLL(RCC_OscInitStruct->PLL.PLLState));
  if ((RCC_OscInitStruct->PLL.PLLState) != RCC_PLL_NONE)
 8001202:	687b      	ldr	r3, [r7, #4]
 8001204:	69db      	ldr	r3, [r3, #28]
 8001206:	2b00      	cmp	r3, #0
 8001208:	f000 8087 	beq.w	800131a <HAL_RCC_OscConfig+0x4f6>
  {
    /* Check if the PLL is used as system clock or not */
    if (__HAL_RCC_GET_SYSCLK_SOURCE() != RCC_SYSCLKSOURCE_STATUS_PLLCLK)
 800120c:	4b36      	ldr	r3, [pc, #216]	; (80012e8 <HAL_RCC_OscConfig+0x4c4>)
 800120e:	685b      	ldr	r3, [r3, #4]
 8001210:	f003 030c 	and.w	r3, r3, #12
 8001214:	2b08      	cmp	r3, #8
 8001216:	d061      	beq.n	80012dc <HAL_RCC_OscConfig+0x4b8>
    {
      if ((RCC_OscInitStruct->PLL.PLLState) == RCC_PLL_ON)
 8001218:	687b      	ldr	r3, [r7, #4]
 800121a:	69db      	ldr	r3, [r3, #28]
 800121c:	2b02      	cmp	r3, #2
 800121e:	d146      	bne.n	80012ae <HAL_RCC_OscConfig+0x48a>
        /* Check the parameters */
        assert_param(IS_RCC_PLLSOURCE(RCC_OscInitStruct->PLL.PLLSource));
        assert_param(IS_RCC_PLL_MUL(RCC_OscInitStruct->PLL.PLLMUL));

        /* Disable the main PLL. */
        __HAL_RCC_PLL_DISABLE();
 8001220:	4b33      	ldr	r3, [pc, #204]	; (80012f0 <HAL_RCC_OscConfig+0x4cc>)
 8001222:	2200      	movs	r2, #0
 8001224:	601a      	str	r2, [r3, #0]

        /* Get Start Tick */
        tickstart = HAL_GetTick();
 8001226:	f7ff fb37 	bl	8000898 <HAL_GetTick>
 800122a:	6138      	str	r0, [r7, #16]

        /* Wait till PLL is disabled */
        while (__HAL_RCC_GET_FLAG(RCC_FLAG_PLLRDY)  != RESET)
 800122c:	e008      	b.n	8001240 <HAL_RCC_OscConfig+0x41c>
        {
          if ((HAL_GetTick() - tickstart) > PLL_TIMEOUT_VALUE)
 800122e:	f7ff fb33 	bl	8000898 <HAL_GetTick>
 8001232:	4602      	mov	r2, r0
 8001234:	693b      	ldr	r3, [r7, #16]
 8001236:	1ad3      	subs	r3, r2, r3
 8001238:	2b02      	cmp	r3, #2
 800123a:	d901      	bls.n	8001240 <HAL_RCC_OscConfig+0x41c>
          {
            return HAL_TIMEOUT;
 800123c:	2303      	movs	r3, #3
 800123e:	e06d      	b.n	800131c <HAL_RCC_OscConfig+0x4f8>
        while (__HAL_RCC_GET_FLAG(RCC_FLAG_PLLRDY)  != RESET)
 8001240:	4b29      	ldr	r3, [pc, #164]	; (80012e8 <HAL_RCC_OscConfig+0x4c4>)
 8001242:	681b      	ldr	r3, [r3, #0]
 8001244:	f003 7300 	and.w	r3, r3, #33554432	; 0x2000000
 8001248:	2b00      	cmp	r3, #0
 800124a:	d1f0      	bne.n	800122e <HAL_RCC_OscConfig+0x40a>
          }
        }

        /* Configure the HSE prediv factor --------------------------------*/
        /* It can be written only when the PLL is disabled. Not used in PLL source is different than HSE */
        if (RCC_OscInitStruct->PLL.PLLSource == RCC_PLLSOURCE_HSE)
 800124c:	687b      	ldr	r3, [r7, #4]
 800124e:	6a1b      	ldr	r3, [r3, #32]
 8001250:	f5b3 3f80 	cmp.w	r3, #65536	; 0x10000
 8001254:	d108      	bne.n	8001268 <HAL_RCC_OscConfig+0x444>
          /* Set PREDIV1 source */
          SET_BIT(RCC->CFGR2, RCC_OscInitStruct->Prediv1Source);
#endif /* RCC_CFGR2_PREDIV1SRC */

          /* Set PREDIV1 Value */
          __HAL_RCC_HSE_PREDIV_CONFIG(RCC_OscInitStruct->HSEPredivValue);
 8001256:	4b24      	ldr	r3, [pc, #144]	; (80012e8 <HAL_RCC_OscConfig+0x4c4>)
 8001258:	685b      	ldr	r3, [r3, #4]
 800125a:	f423 3200 	bic.w	r2, r3, #131072	; 0x20000
 800125e:	687b      	ldr	r3, [r7, #4]
 8001260:	689b      	ldr	r3, [r3, #8]
 8001262:	4921      	ldr	r1, [pc, #132]	; (80012e8 <HAL_RCC_OscConfig+0x4c4>)
 8001264:	4313      	orrs	r3, r2
 8001266:	604b      	str	r3, [r1, #4]
        }

        /* Configure the main PLL clock source and multiplication factors. */
        __HAL_RCC_PLL_CONFIG(RCC_OscInitStruct->PLL.PLLSource,
 8001268:	4b1f      	ldr	r3, [pc, #124]	; (80012e8 <HAL_RCC_OscConfig+0x4c4>)
 800126a:	685b      	ldr	r3, [r3, #4]
 800126c:	f423 1274 	bic.w	r2, r3, #3997696	; 0x3d0000
 8001270:	687b      	ldr	r3, [r7, #4]
 8001272:	6a19      	ldr	r1, [r3, #32]
 8001274:	687b      	ldr	r3, [r7, #4]
 8001276:	6a5b      	ldr	r3, [r3, #36]	; 0x24
 8001278:	430b      	orrs	r3, r1
 800127a:	491b      	ldr	r1, [pc, #108]	; (80012e8 <HAL_RCC_OscConfig+0x4c4>)
 800127c:	4313      	orrs	r3, r2
 800127e:	604b      	str	r3, [r1, #4]
                             RCC_OscInitStruct->PLL.PLLMUL);
        /* Enable the main PLL. */
        __HAL_RCC_PLL_ENABLE();
 8001280:	4b1b      	ldr	r3, [pc, #108]	; (80012f0 <HAL_RCC_OscConfig+0x4cc>)
 8001282:	2201      	movs	r2, #1
 8001284:	601a      	str	r2, [r3, #0]

        /* Get Start Tick */
        tickstart = HAL_GetTick();
 8001286:	f7ff fb07 	bl	8000898 <HAL_GetTick>
 800128a:	6138      	str	r0, [r7, #16]

        /* Wait till PLL is ready */
        while (__HAL_RCC_GET_FLAG(RCC_FLAG_PLLRDY)  == RESET)
 800128c:	e008      	b.n	80012a0 <HAL_RCC_OscConfig+0x47c>
        {
          if ((HAL_GetTick() - tickstart) > PLL_TIMEOUT_VALUE)
 800128e:	f7ff fb03 	bl	8000898 <HAL_GetTick>
 8001292:	4602      	mov	r2, r0
 8001294:	693b      	ldr	r3, [r7, #16]
 8001296:	1ad3      	subs	r3, r2, r3
 8001298:	2b02      	cmp	r3, #2
 800129a:	d901      	bls.n	80012a0 <HAL_RCC_OscConfig+0x47c>
          {
            return HAL_TIMEOUT;
 800129c:	2303      	movs	r3, #3
 800129e:	e03d      	b.n	800131c <HAL_RCC_OscConfig+0x4f8>
        while (__HAL_RCC_GET_FLAG(RCC_FLAG_PLLRDY)  == RESET)
 80012a0:	4b11      	ldr	r3, [pc, #68]	; (80012e8 <HAL_RCC_OscConfig+0x4c4>)
 80012a2:	681b      	ldr	r3, [r3, #0]
 80012a4:	f003 7300 	and.w	r3, r3, #33554432	; 0x2000000
 80012a8:	2b00      	cmp	r3, #0
 80012aa:	d0f0      	beq.n	800128e <HAL_RCC_OscConfig+0x46a>
 80012ac:	e035      	b.n	800131a <HAL_RCC_OscConfig+0x4f6>
        }
      }
      else
      {
        /* Disable the main PLL. */
        __HAL_RCC_PLL_DISABLE();
 80012ae:	4b10      	ldr	r3, [pc, #64]	; (80012f0 <HAL_RCC_OscConfig+0x4cc>)
 80012b0:	2200      	movs	r2, #0
 80012b2:	601a      	str	r2, [r3, #0]

        /* Get Start Tick */
        tickstart = HAL_GetTick();
 80012b4:	f7ff faf0 	bl	8000898 <HAL_GetTick>
 80012b8:	6138      	str	r0, [r7, #16]

        /* Wait till PLL is disabled */
        while (__HAL_RCC_GET_FLAG(RCC_FLAG_PLLRDY)  != RESET)
 80012ba:	e008      	b.n	80012ce <HAL_RCC_OscConfig+0x4aa>
        {
          if ((HAL_GetTick() - tickstart) > PLL_TIMEOUT_VALUE)
 80012bc:	f7ff faec 	bl	8000898 <HAL_GetTick>
 80012c0:	4602      	mov	r2, r0
 80012c2:	693b      	ldr	r3, [r7, #16]
 80012c4:	1ad3      	subs	r3, r2, r3
 80012c6:	2b02      	cmp	r3, #2
 80012c8:	d901      	bls.n	80012ce <HAL_RCC_OscConfig+0x4aa>
          {
            return HAL_TIMEOUT;
 80012ca:	2303      	movs	r3, #3
 80012cc:	e026      	b.n	800131c <HAL_RCC_OscConfig+0x4f8>
        while (__HAL_RCC_GET_FLAG(RCC_FLAG_PLLRDY)  != RESET)
 80012ce:	4b06      	ldr	r3, [pc, #24]	; (80012e8 <HAL_RCC_OscConfig+0x4c4>)
 80012d0:	681b      	ldr	r3, [r3, #0]
 80012d2:	f003 7300 	and.w	r3, r3, #33554432	; 0x2000000
 80012d6:	2b00      	cmp	r3, #0
 80012d8:	d1f0      	bne.n	80012bc <HAL_RCC_OscConfig+0x498>
 80012da:	e01e      	b.n	800131a <HAL_RCC_OscConfig+0x4f6>
      }
    }
    else
    {
      /* Check if there is a request to disable the PLL used as System clock source */
      if ((RCC_OscInitStruct->PLL.PLLState) == RCC_PLL_OFF)
 80012dc:	687b      	ldr	r3, [r7, #4]
 80012de:	69db      	ldr	r3, [r3, #28]
 80012e0:	2b01      	cmp	r3, #1
 80012e2:	d107      	bne.n	80012f4 <HAL_RCC_OscConfig+0x4d0>
      {
        return HAL_ERROR;
 80012e4:	2301      	movs	r3, #1
 80012e6:	e019      	b.n	800131c <HAL_RCC_OscConfig+0x4f8>
 80012e8:	40021000 	.word	0x40021000
 80012ec:	40007000 	.word	0x40007000
 80012f0:	42420060 	.word	0x42420060
      }
      else
      {
        /* Do not return HAL_ERROR if request repeats the current configuration */
        pll_config = RCC->CFGR;
 80012f4:	4b0b      	ldr	r3, [pc, #44]	; (8001324 <HAL_RCC_OscConfig+0x500>)
 80012f6:	685b      	ldr	r3, [r3, #4]
 80012f8:	60fb      	str	r3, [r7, #12]
        if ((READ_BIT(pll_config, RCC_CFGR_PLLSRC) != RCC_OscInitStruct->PLL.PLLSource) ||
 80012fa:	68fb      	ldr	r3, [r7, #12]
 80012fc:	f403 3280 	and.w	r2, r3, #65536	; 0x10000
 8001300:	687b      	ldr	r3, [r7, #4]
 8001302:	6a1b      	ldr	r3, [r3, #32]
 8001304:	429a      	cmp	r2, r3
 8001306:	d106      	bne.n	8001316 <HAL_RCC_OscConfig+0x4f2>
            (READ_BIT(pll_config, RCC_CFGR_PLLMULL) != RCC_OscInitStruct->PLL.PLLMUL))
 8001308:	68fb      	ldr	r3, [r7, #12]
 800130a:	f403 1270 	and.w	r2, r3, #3932160	; 0x3c0000
 800130e:	687b      	ldr	r3, [r7, #4]
 8001310:	6a5b      	ldr	r3, [r3, #36]	; 0x24
        if ((READ_BIT(pll_config, RCC_CFGR_PLLSRC) != RCC_OscInitStruct->PLL.PLLSource) ||
 8001312:	429a      	cmp	r2, r3
 8001314:	d001      	beq.n	800131a <HAL_RCC_OscConfig+0x4f6>
        {
          return HAL_ERROR;
 8001316:	2301      	movs	r3, #1
 8001318:	e000      	b.n	800131c <HAL_RCC_OscConfig+0x4f8>
        }
      }
    }
  }

  return HAL_OK;
 800131a:	2300      	movs	r3, #0
}
 800131c:	4618      	mov	r0, r3
 800131e:	3718      	adds	r7, #24
 8001320:	46bd      	mov	sp, r7
 8001322:	bd80      	pop	{r7, pc}
 8001324:	40021000 	.word	0x40021000

08001328 <HAL_RCC_ClockConfig>:
  *         You can use @ref HAL_RCC_GetClockConfig() function to know which clock is
  *         currently used as system clock source.
  * @retval HAL status
  */
HAL_StatusTypeDef HAL_RCC_ClockConfig(RCC_ClkInitTypeDef  *RCC_ClkInitStruct, uint32_t FLatency)
{
 8001328:	b580      	push	{r7, lr}
 800132a:	b084      	sub	sp, #16
 800132c:	af00      	add	r7, sp, #0
 800132e:	6078      	str	r0, [r7, #4]
 8001330:	6039      	str	r1, [r7, #0]
  uint32_t tickstart;

  /* Check Null pointer */
  if (RCC_ClkInitStruct == NULL)
 8001332:	687b      	ldr	r3, [r7, #4]
 8001334:	2b00      	cmp	r3, #0
 8001336:	d101      	bne.n	800133c <HAL_RCC_ClockConfig+0x14>
  {
    return HAL_ERROR;
 8001338:	2301      	movs	r3, #1
 800133a:	e0d0      	b.n	80014de <HAL_RCC_ClockConfig+0x1b6>
  must be correctly programmed according to the frequency of the CPU clock
    (HCLK) of the device. */

#if defined(FLASH_ACR_LATENCY)
  /* Increasing the number of wait states because of higher CPU frequency */
  if (FLatency > __HAL_FLASH_GET_LATENCY())
 800133c:	4b6a      	ldr	r3, [pc, #424]	; (80014e8 <HAL_RCC_ClockConfig+0x1c0>)
 800133e:	681b      	ldr	r3, [r3, #0]
 8001340:	f003 0307 	and.w	r3, r3, #7
 8001344:	683a      	ldr	r2, [r7, #0]
 8001346:	429a      	cmp	r2, r3
 8001348:	d910      	bls.n	800136c <HAL_RCC_ClockConfig+0x44>
  {
    /* Program the new number of wait states to the LATENCY bits in the FLASH_ACR register */
    __HAL_FLASH_SET_LATENCY(FLatency);
 800134a:	4b67      	ldr	r3, [pc, #412]	; (80014e8 <HAL_RCC_ClockConfig+0x1c0>)
 800134c:	681b      	ldr	r3, [r3, #0]
 800134e:	f023 0207 	bic.w	r2, r3, #7
 8001352:	4965      	ldr	r1, [pc, #404]	; (80014e8 <HAL_RCC_ClockConfig+0x1c0>)
 8001354:	683b      	ldr	r3, [r7, #0]
 8001356:	4313      	orrs	r3, r2
 8001358:	600b      	str	r3, [r1, #0]

    /* Check that the new number of wait states is taken into account to access the Flash
    memory by reading the FLASH_ACR register */
    if (__HAL_FLASH_GET_LATENCY() != FLatency)
 800135a:	4b63      	ldr	r3, [pc, #396]	; (80014e8 <HAL_RCC_ClockConfig+0x1c0>)
 800135c:	681b      	ldr	r3, [r3, #0]
 800135e:	f003 0307 	and.w	r3, r3, #7
 8001362:	683a      	ldr	r2, [r7, #0]
 8001364:	429a      	cmp	r2, r3
 8001366:	d001      	beq.n	800136c <HAL_RCC_ClockConfig+0x44>
  {
    return HAL_ERROR;
 8001368:	2301      	movs	r3, #1
 800136a:	e0b8      	b.n	80014de <HAL_RCC_ClockConfig+0x1b6>
  }
}

#endif /* FLASH_ACR_LATENCY */
/*-------------------------- HCLK Configuration --------------------------*/
if (((RCC_ClkInitStruct->ClockType) & RCC_CLOCKTYPE_HCLK) == RCC_CLOCKTYPE_HCLK)
 800136c:	687b      	ldr	r3, [r7, #4]
 800136e:	681b      	ldr	r3, [r3, #0]
 8001370:	f003 0302 	and.w	r3, r3, #2
 8001374:	2b00      	cmp	r3, #0
 8001376:	d020      	beq.n	80013ba <HAL_RCC_ClockConfig+0x92>
  {
    /* Set the highest APBx dividers in order to ensure that we do not go through
    a non-spec phase whatever we decrease or increase HCLK. */
    if (((RCC_ClkInitStruct->ClockType) & RCC_CLOCKTYPE_PCLK1) == RCC_CLOCKTYPE_PCLK1)
 8001378:	687b      	ldr	r3, [r7, #4]
 800137a:	681b      	ldr	r3, [r3, #0]
 800137c:	f003 0304 	and.w	r3, r3, #4
 8001380:	2b00      	cmp	r3, #0
 8001382:	d005      	beq.n	8001390 <HAL_RCC_ClockConfig+0x68>
    {
      MODIFY_REG(RCC->CFGR, RCC_CFGR_PPRE1, RCC_HCLK_DIV16);
 8001384:	4b59      	ldr	r3, [pc, #356]	; (80014ec <HAL_RCC_ClockConfig+0x1c4>)
 8001386:	685b      	ldr	r3, [r3, #4]
 8001388:	4a58      	ldr	r2, [pc, #352]	; (80014ec <HAL_RCC_ClockConfig+0x1c4>)
 800138a:	f443 63e0 	orr.w	r3, r3, #1792	; 0x700
 800138e:	6053      	str	r3, [r2, #4]
    }

    if (((RCC_ClkInitStruct->ClockType) & RCC_CLOCKTYPE_PCLK2) == RCC_CLOCKTYPE_PCLK2)
 8001390:	687b      	ldr	r3, [r7, #4]
 8001392:	681b      	ldr	r3, [r3, #0]
 8001394:	f003 0308 	and.w	r3, r3, #8
 8001398:	2b00      	cmp	r3, #0
 800139a:	d005      	beq.n	80013a8 <HAL_RCC_ClockConfig+0x80>
    {
      MODIFY_REG(RCC->CFGR, RCC_CFGR_PPRE2, (RCC_HCLK_DIV16 << 3));
 800139c:	4b53      	ldr	r3, [pc, #332]	; (80014ec <HAL_RCC_ClockConfig+0x1c4>)
 800139e:	685b      	ldr	r3, [r3, #4]
 80013a0:	4a52      	ldr	r2, [pc, #328]	; (80014ec <HAL_RCC_ClockConfig+0x1c4>)
 80013a2:	f443 5360 	orr.w	r3, r3, #14336	; 0x3800
 80013a6:	6053      	str	r3, [r2, #4]
    }

    /* Set the new HCLK clock divider */
    assert_param(IS_RCC_HCLK(RCC_ClkInitStruct->AHBCLKDivider));
    MODIFY_REG(RCC->CFGR, RCC_CFGR_HPRE, RCC_ClkInitStruct->AHBCLKDivider);
 80013a8:	4b50      	ldr	r3, [pc, #320]	; (80014ec <HAL_RCC_ClockConfig+0x1c4>)
 80013aa:	685b      	ldr	r3, [r3, #4]
 80013ac:	f023 02f0 	bic.w	r2, r3, #240	; 0xf0
 80013b0:	687b      	ldr	r3, [r7, #4]
 80013b2:	689b      	ldr	r3, [r3, #8]
 80013b4:	494d      	ldr	r1, [pc, #308]	; (80014ec <HAL_RCC_ClockConfig+0x1c4>)
 80013b6:	4313      	orrs	r3, r2
 80013b8:	604b      	str	r3, [r1, #4]
  }

  /*------------------------- SYSCLK Configuration ---------------------------*/
  if (((RCC_ClkInitStruct->ClockType) & RCC_CLOCKTYPE_SYSCLK) == RCC_CLOCKTYPE_SYSCLK)
 80013ba:	687b      	ldr	r3, [r7, #4]
 80013bc:	681b      	ldr	r3, [r3, #0]
 80013be:	f003 0301 	and.w	r3, r3, #1
 80013c2:	2b00      	cmp	r3, #0
 80013c4:	d040      	beq.n	8001448 <HAL_RCC_ClockConfig+0x120>
  {
    assert_param(IS_RCC_SYSCLKSOURCE(RCC_ClkInitStruct->SYSCLKSource));

    /* HSE is selected as System Clock Source */
    if (RCC_ClkInitStruct->SYSCLKSource == RCC_SYSCLKSOURCE_HSE)
 80013c6:	687b      	ldr	r3, [r7, #4]
 80013c8:	685b      	ldr	r3, [r3, #4]
 80013ca:	2b01      	cmp	r3, #1
 80013cc:	d107      	bne.n	80013de <HAL_RCC_ClockConfig+0xb6>
    {
      /* Check the HSE ready flag */
      if (__HAL_RCC_GET_FLAG(RCC_FLAG_HSERDY) == RESET)
 80013ce:	4b47      	ldr	r3, [pc, #284]	; (80014ec <HAL_RCC_ClockConfig+0x1c4>)
 80013d0:	681b      	ldr	r3, [r3, #0]
 80013d2:	f403 3300 	and.w	r3, r3, #131072	; 0x20000
 80013d6:	2b00      	cmp	r3, #0
 80013d8:	d115      	bne.n	8001406 <HAL_RCC_ClockConfig+0xde>
      {
        return HAL_ERROR;
 80013da:	2301      	movs	r3, #1
 80013dc:	e07f      	b.n	80014de <HAL_RCC_ClockConfig+0x1b6>
      }
    }
    /* PLL is selected as System Clock Source */
    else if (RCC_ClkInitStruct->SYSCLKSource == RCC_SYSCLKSOURCE_PLLCLK)
 80013de:	687b      	ldr	r3, [r7, #4]
 80013e0:	685b      	ldr	r3, [r3, #4]
 80013e2:	2b02      	cmp	r3, #2
 80013e4:	d107      	bne.n	80013f6 <HAL_RCC_ClockConfig+0xce>
    {
      /* Check the PLL ready flag */
      if (__HAL_RCC_GET_FLAG(RCC_FLAG_PLLRDY) == RESET)
 80013e6:	4b41      	ldr	r3, [pc, #260]	; (80014ec <HAL_RCC_ClockConfig+0x1c4>)
 80013e8:	681b      	ldr	r3, [r3, #0]
 80013ea:	f003 7300 	and.w	r3, r3, #33554432	; 0x2000000
 80013ee:	2b00      	cmp	r3, #0
 80013f0:	d109      	bne.n	8001406 <HAL_RCC_ClockConfig+0xde>
      {
        return HAL_ERROR;
 80013f2:	2301      	movs	r3, #1
 80013f4:	e073      	b.n	80014de <HAL_RCC_ClockConfig+0x1b6>
    }
    /* HSI is selected as System Clock Source */
    else
    {
      /* Check the HSI ready flag */
      if (__HAL_RCC_GET_FLAG(RCC_FLAG_HSIRDY) == RESET)
 80013f6:	4b3d      	ldr	r3, [pc, #244]	; (80014ec <HAL_RCC_ClockConfig+0x1c4>)
 80013f8:	681b      	ldr	r3, [r3, #0]
 80013fa:	f003 0302 	and.w	r3, r3, #2
 80013fe:	2b00      	cmp	r3, #0
 8001400:	d101      	bne.n	8001406 <HAL_RCC_ClockConfig+0xde>
      {
        return HAL_ERROR;
 8001402:	2301      	movs	r3, #1
 8001404:	e06b      	b.n	80014de <HAL_RCC_ClockConfig+0x1b6>
      }
    }
    __HAL_RCC_SYSCLK_CONFIG(RCC_ClkInitStruct->SYSCLKSource);
 8001406:	4b39      	ldr	r3, [pc, #228]	; (80014ec <HAL_RCC_ClockConfig+0x1c4>)
 8001408:	685b      	ldr	r3, [r3, #4]
 800140a:	f023 0203 	bic.w	r2, r3, #3
 800140e:	687b      	ldr	r3, [r7, #4]
 8001410:	685b      	ldr	r3, [r3, #4]
 8001412:	4936      	ldr	r1, [pc, #216]	; (80014ec <HAL_RCC_ClockConfig+0x1c4>)
 8001414:	4313      	orrs	r3, r2
 8001416:	604b      	str	r3, [r1, #4]

    /* Get Start Tick */
    tickstart = HAL_GetTick();
 8001418:	f7ff fa3e 	bl	8000898 <HAL_GetTick>
 800141c:	60f8      	str	r0, [r7, #12]

    while (__HAL_RCC_GET_SYSCLK_SOURCE() != (RCC_ClkInitStruct->SYSCLKSource << RCC_CFGR_SWS_Pos))
 800141e:	e00a      	b.n	8001436 <HAL_RCC_ClockConfig+0x10e>
    {
      if ((HAL_GetTick() - tickstart) > CLOCKSWITCH_TIMEOUT_VALUE)
 8001420:	f7ff fa3a 	bl	8000898 <HAL_GetTick>
 8001424:	4602      	mov	r2, r0
 8001426:	68fb      	ldr	r3, [r7, #12]
 8001428:	1ad3      	subs	r3, r2, r3
 800142a:	f241 3288 	movw	r2, #5000	; 0x1388
 800142e:	4293      	cmp	r3, r2
 8001430:	d901      	bls.n	8001436 <HAL_RCC_ClockConfig+0x10e>
      {
        return HAL_TIMEOUT;
 8001432:	2303      	movs	r3, #3
 8001434:	e053      	b.n	80014de <HAL_RCC_ClockConfig+0x1b6>
    while (__HAL_RCC_GET_SYSCLK_SOURCE() != (RCC_ClkInitStruct->SYSCLKSource << RCC_CFGR_SWS_Pos))
 8001436:	4b2d      	ldr	r3, [pc, #180]	; (80014ec <HAL_RCC_ClockConfig+0x1c4>)
 8001438:	685b      	ldr	r3, [r3, #4]
 800143a:	f003 020c 	and.w	r2, r3, #12
 800143e:	687b      	ldr	r3, [r7, #4]
 8001440:	685b      	ldr	r3, [r3, #4]
 8001442:	009b      	lsls	r3, r3, #2
 8001444:	429a      	cmp	r2, r3
 8001446:	d1eb      	bne.n	8001420 <HAL_RCC_ClockConfig+0xf8>
    }
  }

#if defined(FLASH_ACR_LATENCY)
  /* Decreasing the number of wait states because of lower CPU frequency */
  if (FLatency < __HAL_FLASH_GET_LATENCY())
 8001448:	4b27      	ldr	r3, [pc, #156]	; (80014e8 <HAL_RCC_ClockConfig+0x1c0>)
 800144a:	681b      	ldr	r3, [r3, #0]
 800144c:	f003 0307 	and.w	r3, r3, #7
 8001450:	683a      	ldr	r2, [r7, #0]
 8001452:	429a      	cmp	r2, r3
 8001454:	d210      	bcs.n	8001478 <HAL_RCC_ClockConfig+0x150>
  {
    /* Program the new number of wait states to the LATENCY bits in the FLASH_ACR register */
    __HAL_FLASH_SET_LATENCY(FLatency);
 8001456:	4b24      	ldr	r3, [pc, #144]	; (80014e8 <HAL_RCC_ClockConfig+0x1c0>)
 8001458:	681b      	ldr	r3, [r3, #0]
 800145a:	f023 0207 	bic.w	r2, r3, #7
 800145e:	4922      	ldr	r1, [pc, #136]	; (80014e8 <HAL_RCC_ClockConfig+0x1c0>)
 8001460:	683b      	ldr	r3, [r7, #0]
 8001462:	4313      	orrs	r3, r2
 8001464:	600b      	str	r3, [r1, #0]

    /* Check that the new number of wait states is taken into account to access the Flash
    memory by reading the FLASH_ACR register */
    if (__HAL_FLASH_GET_LATENCY() != FLatency)
 8001466:	4b20      	ldr	r3, [pc, #128]	; (80014e8 <HAL_RCC_ClockConfig+0x1c0>)
 8001468:	681b      	ldr	r3, [r3, #0]
 800146a:	f003 0307 	and.w	r3, r3, #7
 800146e:	683a      	ldr	r2, [r7, #0]
 8001470:	429a      	cmp	r2, r3
 8001472:	d001      	beq.n	8001478 <HAL_RCC_ClockConfig+0x150>
  {
    return HAL_ERROR;
 8001474:	2301      	movs	r3, #1
 8001476:	e032      	b.n	80014de <HAL_RCC_ClockConfig+0x1b6>
  }
}
#endif /* FLASH_ACR_LATENCY */

/*-------------------------- PCLK1 Configuration ---------------------------*/
if (((RCC_ClkInitStruct->ClockType) & RCC_CLOCKTYPE_PCLK1) == RCC_CLOCKTYPE_PCLK1)
 8001478:	687b      	ldr	r3, [r7, #4]
 800147a:	681b      	ldr	r3, [r3, #0]
 800147c:	f003 0304 	and.w	r3, r3, #4
 8001480:	2b00      	cmp	r3, #0
 8001482:	d008      	beq.n	8001496 <HAL_RCC_ClockConfig+0x16e>
  {
    assert_param(IS_RCC_PCLK(RCC_ClkInitStruct->APB1CLKDivider));
    MODIFY_REG(RCC->CFGR, RCC_CFGR_PPRE1, RCC_ClkInitStruct->APB1CLKDivider);
 8001484:	4b19      	ldr	r3, [pc, #100]	; (80014ec <HAL_RCC_ClockConfig+0x1c4>)
 8001486:	685b      	ldr	r3, [r3, #4]
 8001488:	f423 62e0 	bic.w	r2, r3, #1792	; 0x700
 800148c:	687b      	ldr	r3, [r7, #4]
 800148e:	68db      	ldr	r3, [r3, #12]
 8001490:	4916      	ldr	r1, [pc, #88]	; (80014ec <HAL_RCC_ClockConfig+0x1c4>)
 8001492:	4313      	orrs	r3, r2
 8001494:	604b      	str	r3, [r1, #4]
  }

  /*-------------------------- PCLK2 Configuration ---------------------------*/
  if (((RCC_ClkInitStruct->ClockType) & RCC_CLOCKTYPE_PCLK2) == RCC_CLOCKTYPE_PCLK2)
 8001496:	687b      	ldr	r3, [r7, #4]
 8001498:	681b      	ldr	r3, [r3, #0]
 800149a:	f003 0308 	and.w	r3, r3, #8
 800149e:	2b00      	cmp	r3, #0
 80014a0:	d009      	beq.n	80014b6 <HAL_RCC_ClockConfig+0x18e>
  {
    assert_param(IS_RCC_PCLK(RCC_ClkInitStruct->APB2CLKDivider));
    MODIFY_REG(RCC->CFGR, RCC_CFGR_PPRE2, ((RCC_ClkInitStruct->APB2CLKDivider) << 3));
 80014a2:	4b12      	ldr	r3, [pc, #72]	; (80014ec <HAL_RCC_ClockConfig+0x1c4>)
 80014a4:	685b      	ldr	r3, [r3, #4]
 80014a6:	f423 5260 	bic.w	r2, r3, #14336	; 0x3800
 80014aa:	687b      	ldr	r3, [r7, #4]
 80014ac:	691b      	ldr	r3, [r3, #16]
 80014ae:	00db      	lsls	r3, r3, #3
 80014b0:	490e      	ldr	r1, [pc, #56]	; (80014ec <HAL_RCC_ClockConfig+0x1c4>)
 80014b2:	4313      	orrs	r3, r2
 80014b4:	604b      	str	r3, [r1, #4]
  }

  /* Update the SystemCoreClock global variable */
  SystemCoreClock = HAL_RCC_GetSysClockFreq() >> AHBPrescTable[(RCC->CFGR & RCC_CFGR_HPRE) >> RCC_CFGR_HPRE_Pos];
 80014b6:	f000 f821 	bl	80014fc <HAL_RCC_GetSysClockFreq>
 80014ba:	4602      	mov	r2, r0
 80014bc:	4b0b      	ldr	r3, [pc, #44]	; (80014ec <HAL_RCC_ClockConfig+0x1c4>)
 80014be:	685b      	ldr	r3, [r3, #4]
 80014c0:	091b      	lsrs	r3, r3, #4
 80014c2:	f003 030f 	and.w	r3, r3, #15
 80014c6:	490a      	ldr	r1, [pc, #40]	; (80014f0 <HAL_RCC_ClockConfig+0x1c8>)
 80014c8:	5ccb      	ldrb	r3, [r1, r3]
 80014ca:	fa22 f303 	lsr.w	r3, r2, r3
 80014ce:	4a09      	ldr	r2, [pc, #36]	; (80014f4 <HAL_RCC_ClockConfig+0x1cc>)
 80014d0:	6013      	str	r3, [r2, #0]

  /* Configure the source of time base considering new system clocks settings*/
  HAL_InitTick(uwTickPrio);
 80014d2:	4b09      	ldr	r3, [pc, #36]	; (80014f8 <HAL_RCC_ClockConfig+0x1d0>)
 80014d4:	681b      	ldr	r3, [r3, #0]
 80014d6:	4618      	mov	r0, r3
 80014d8:	f7ff f99c 	bl	8000814 <HAL_InitTick>

  return HAL_OK;
 80014dc:	2300      	movs	r3, #0
}
 80014de:	4618      	mov	r0, r3
 80014e0:	3710      	adds	r7, #16
 80014e2:	46bd      	mov	sp, r7
 80014e4:	bd80      	pop	{r7, pc}
 80014e6:	bf00      	nop
 80014e8:	40022000 	.word	0x40022000
 80014ec:	40021000 	.word	0x40021000
 80014f0:	08001e20 	.word	0x08001e20
 80014f4:	20000000 	.word	0x20000000
 80014f8:	20000004 	.word	0x20000004

080014fc <HAL_RCC_GetSysClockFreq>:
  *         right SYSCLK value. Otherwise, any configuration based on this function will be incorrect.
  *
  * @retval SYSCLK frequency
  */
uint32_t HAL_RCC_GetSysClockFreq(void)
{
 80014fc:	b480      	push	{r7}
 80014fe:	b087      	sub	sp, #28
 8001500:	af00      	add	r7, sp, #0
#else
  static const uint8_t aPredivFactorTable[2U] = {1, 2};
#endif /*RCC_CFGR2_PREDIV1*/

#endif
  uint32_t tmpreg = 0U, prediv = 0U, pllclk = 0U, pllmul = 0U;
 8001502:	2300      	movs	r3, #0
 8001504:	60fb      	str	r3, [r7, #12]
 8001506:	2300      	movs	r3, #0
 8001508:	60bb      	str	r3, [r7, #8]
 800150a:	2300      	movs	r3, #0
 800150c:	617b      	str	r3, [r7, #20]
 800150e:	2300      	movs	r3, #0
 8001510:	607b      	str	r3, [r7, #4]
  uint32_t sysclockfreq = 0U;
 8001512:	2300      	movs	r3, #0
 8001514:	613b      	str	r3, [r7, #16]
#if defined(RCC_CFGR2_PREDIV1SRC)
  uint32_t prediv2 = 0U, pll2mul = 0U;
#endif /*RCC_CFGR2_PREDIV1SRC*/

  tmpreg = RCC->CFGR;
 8001516:	4b1e      	ldr	r3, [pc, #120]	; (8001590 <HAL_RCC_GetSysClockFreq+0x94>)
 8001518:	685b      	ldr	r3, [r3, #4]
 800151a:	60fb      	str	r3, [r7, #12]

  /* Get SYSCLK source -------------------------------------------------------*/
  switch (tmpreg & RCC_CFGR_SWS)
 800151c:	68fb      	ldr	r3, [r7, #12]
 800151e:	f003 030c 	and.w	r3, r3, #12
 8001522:	2b04      	cmp	r3, #4
 8001524:	d002      	beq.n	800152c <HAL_RCC_GetSysClockFreq+0x30>
 8001526:	2b08      	cmp	r3, #8
 8001528:	d003      	beq.n	8001532 <HAL_RCC_GetSysClockFreq+0x36>
 800152a:	e027      	b.n	800157c <HAL_RCC_GetSysClockFreq+0x80>
  {
    case RCC_SYSCLKSOURCE_STATUS_HSE:  /* HSE used as system clock */
    {
      sysclockfreq = HSE_VALUE;
 800152c:	4b19      	ldr	r3, [pc, #100]	; (8001594 <HAL_RCC_GetSysClockFreq+0x98>)
 800152e:	613b      	str	r3, [r7, #16]
      break;
 8001530:	e027      	b.n	8001582 <HAL_RCC_GetSysClockFreq+0x86>
    }
    case RCC_SYSCLKSOURCE_STATUS_PLLCLK:  /* PLL used as system clock */
    {
      pllmul = aPLLMULFactorTable[(uint32_t)(tmpreg & RCC_CFGR_PLLMULL) >> RCC_CFGR_PLLMULL_Pos];
 8001532:	68fb      	ldr	r3, [r7, #12]
 8001534:	0c9b      	lsrs	r3, r3, #18
 8001536:	f003 030f 	and.w	r3, r3, #15
 800153a:	4a17      	ldr	r2, [pc, #92]	; (8001598 <HAL_RCC_GetSysClockFreq+0x9c>)
 800153c:	5cd3      	ldrb	r3, [r2, r3]
 800153e:	607b      	str	r3, [r7, #4]
      if ((tmpreg & RCC_CFGR_PLLSRC) != RCC_PLLSOURCE_HSI_DIV2)
 8001540:	68fb      	ldr	r3, [r7, #12]
 8001542:	f403 3380 	and.w	r3, r3, #65536	; 0x10000
 8001546:	2b00      	cmp	r3, #0
 8001548:	d010      	beq.n	800156c <HAL_RCC_GetSysClockFreq+0x70>
      {
#if defined(RCC_CFGR2_PREDIV1)
        prediv = aPredivFactorTable[(uint32_t)(RCC->CFGR2 & RCC_CFGR2_PREDIV1) >> RCC_CFGR2_PREDIV1_Pos];
#else
        prediv = aPredivFactorTable[(uint32_t)(RCC->CFGR & RCC_CFGR_PLLXTPRE) >> RCC_CFGR_PLLXTPRE_Pos];
 800154a:	4b11      	ldr	r3, [pc, #68]	; (8001590 <HAL_RCC_GetSysClockFreq+0x94>)
 800154c:	685b      	ldr	r3, [r3, #4]
 800154e:	0c5b      	lsrs	r3, r3, #17
 8001550:	f003 0301 	and.w	r3, r3, #1
 8001554:	4a11      	ldr	r2, [pc, #68]	; (800159c <HAL_RCC_GetSysClockFreq+0xa0>)
 8001556:	5cd3      	ldrb	r3, [r2, r3]
 8001558:	60bb      	str	r3, [r7, #8]
        {
          pllclk = pllclk / 2;
        }
#else
        /* HSE used as PLL clock source : PLLCLK = HSE/PREDIV1 * PLLMUL */
        pllclk = (uint32_t)((HSE_VALUE  * pllmul) / prediv);
 800155a:	687b      	ldr	r3, [r7, #4]
 800155c:	4a0d      	ldr	r2, [pc, #52]	; (8001594 <HAL_RCC_GetSysClockFreq+0x98>)
 800155e:	fb03 f202 	mul.w	r2, r3, r2
 8001562:	68bb      	ldr	r3, [r7, #8]
 8001564:	fbb2 f3f3 	udiv	r3, r2, r3
 8001568:	617b      	str	r3, [r7, #20]
 800156a:	e004      	b.n	8001576 <HAL_RCC_GetSysClockFreq+0x7a>
#endif /*RCC_CFGR2_PREDIV1SRC*/
      }
      else
      {
        /* HSI used as PLL clock source : PLLCLK = HSI/2 * PLLMUL */
        pllclk = (uint32_t)((HSI_VALUE >> 1) * pllmul);
 800156c:	687b      	ldr	r3, [r7, #4]
 800156e:	4a0c      	ldr	r2, [pc, #48]	; (80015a0 <HAL_RCC_GetSysClockFreq+0xa4>)
 8001570:	fb02 f303 	mul.w	r3, r2, r3
 8001574:	617b      	str	r3, [r7, #20]
      }
      sysclockfreq = pllclk;
 8001576:	697b      	ldr	r3, [r7, #20]
 8001578:	613b      	str	r3, [r7, #16]
      break;
 800157a:	e002      	b.n	8001582 <HAL_RCC_GetSysClockFreq+0x86>
    }
    case RCC_SYSCLKSOURCE_STATUS_HSI:  /* HSI used as system clock source */
    default: /* HSI used as system clock */
    {
      sysclockfreq = HSI_VALUE;
 800157c:	4b05      	ldr	r3, [pc, #20]	; (8001594 <HAL_RCC_GetSysClockFreq+0x98>)
 800157e:	613b      	str	r3, [r7, #16]
      break;
 8001580:	bf00      	nop
    }
  }
  return sysclockfreq;
 8001582:	693b      	ldr	r3, [r7, #16]
}
 8001584:	4618      	mov	r0, r3
 8001586:	371c      	adds	r7, #28
 8001588:	46bd      	mov	sp, r7
 800158a:	bc80      	pop	{r7}
 800158c:	4770      	bx	lr
 800158e:	bf00      	nop
 8001590:	40021000 	.word	0x40021000
 8001594:	007a1200 	.word	0x007a1200
 8001598:	08001e30 	.word	0x08001e30
 800159c:	08001e40 	.word	0x08001e40
 80015a0:	003d0900 	.word	0x003d0900

080015a4 <RCC_Delay>:
  * @brief  This function provides delay (in milliseconds) based on CPU cycles method.
  * @param  mdelay: specifies the delay time length, in milliseconds.
  * @retval None
  */
static void RCC_Delay(uint32_t mdelay)
{
 80015a4:	b480      	push	{r7}
 80015a6:	b085      	sub	sp, #20
 80015a8:	af00      	add	r7, sp, #0
 80015aa:	6078      	str	r0, [r7, #4]
  __IO uint32_t Delay = mdelay * (SystemCoreClock / 8U / 1000U);
 80015ac:	4b0a      	ldr	r3, [pc, #40]	; (80015d8 <RCC_Delay+0x34>)
 80015ae:	681b      	ldr	r3, [r3, #0]
 80015b0:	4a0a      	ldr	r2, [pc, #40]	; (80015dc <RCC_Delay+0x38>)
 80015b2:	fba2 2303 	umull	r2, r3, r2, r3
 80015b6:	0a5b      	lsrs	r3, r3, #9
 80015b8:	687a      	ldr	r2, [r7, #4]
 80015ba:	fb02 f303 	mul.w	r3, r2, r3
 80015be:	60fb      	str	r3, [r7, #12]
  do
  {
    __NOP();
 80015c0:	bf00      	nop
  }
  while (Delay --);
 80015c2:	68fb      	ldr	r3, [r7, #12]
 80015c4:	1e5a      	subs	r2, r3, #1
 80015c6:	60fa      	str	r2, [r7, #12]
 80015c8:	2b00      	cmp	r3, #0
 80015ca:	d1f9      	bne.n	80015c0 <RCC_Delay+0x1c>
}
 80015cc:	bf00      	nop
 80015ce:	bf00      	nop
 80015d0:	3714      	adds	r7, #20
 80015d2:	46bd      	mov	sp, r7
 80015d4:	bc80      	pop	{r7}
 80015d6:	4770      	bx	lr
 80015d8:	20000000 	.word	0x20000000
 80015dc:	10624dd3 	.word	0x10624dd3

080015e0 <HAL_TIM_Base_Init>:
  *         Ex: call @ref HAL_TIM_Base_DeInit() before HAL_TIM_Base_Init()
  * @param  htim TIM Base handle
  * @retval HAL status
  */
HAL_StatusTypeDef HAL_TIM_Base_Init(TIM_HandleTypeDef *htim)
{
 80015e0:	b580      	push	{r7, lr}
 80015e2:	b082      	sub	sp, #8
 80015e4:	af00      	add	r7, sp, #0
 80015e6:	6078      	str	r0, [r7, #4]
  /* Check the TIM handle allocation */
  if (htim == NULL)
 80015e8:	687b      	ldr	r3, [r7, #4]
 80015ea:	2b00      	cmp	r3, #0
 80015ec:	d101      	bne.n	80015f2 <HAL_TIM_Base_Init+0x12>
  {
    return HAL_ERROR;
 80015ee:	2301      	movs	r3, #1
 80015f0:	e041      	b.n	8001676 <HAL_TIM_Base_Init+0x96>
  assert_param(IS_TIM_COUNTER_MODE(htim->Init.CounterMode));
  assert_param(IS_TIM_CLOCKDIVISION_DIV(htim->Init.ClockDivision));
  assert_param(IS_TIM_PERIOD(htim->Init.Period));
  assert_param(IS_TIM_AUTORELOAD_PRELOAD(htim->Init.AutoReloadPreload));

  if (htim->State == HAL_TIM_STATE_RESET)
 80015f2:	687b      	ldr	r3, [r7, #4]
 80015f4:	f893 303d 	ldrb.w	r3, [r3, #61]	; 0x3d
 80015f8:	b2db      	uxtb	r3, r3
 80015fa:	2b00      	cmp	r3, #0
 80015fc:	d106      	bne.n	800160c <HAL_TIM_Base_Init+0x2c>
  {
    /* Allocate lock resource and initialize it */
    htim->Lock = HAL_UNLOCKED;
 80015fe:	687b      	ldr	r3, [r7, #4]
 8001600:	2200      	movs	r2, #0
 8001602:	f883 203c 	strb.w	r2, [r3, #60]	; 0x3c
    }
    /* Init the low level hardware : GPIO, CLOCK, NVIC */
    htim->Base_MspInitCallback(htim);
#else
    /* Init the low level hardware : GPIO, CLOCK, NVIC */
    HAL_TIM_Base_MspInit(htim);
 8001606:	6878      	ldr	r0, [r7, #4]
 8001608:	f7ff f86c 	bl	80006e4 <HAL_TIM_Base_MspInit>
#endif /* USE_HAL_TIM_REGISTER_CALLBACKS */
  }

  /* Set the TIM state */
  htim->State = HAL_TIM_STATE_BUSY;
 800160c:	687b      	ldr	r3, [r7, #4]
 800160e:	2202      	movs	r2, #2
 8001610:	f883 203d 	strb.w	r2, [r3, #61]	; 0x3d

  /* Set the Time Base configuration */
  TIM_Base_SetConfig(htim->Instance, &htim->Init);
 8001614:	687b      	ldr	r3, [r7, #4]
 8001616:	681a      	ldr	r2, [r3, #0]
 8001618:	687b      	ldr	r3, [r7, #4]
 800161a:	3304      	adds	r3, #4
 800161c:	4619      	mov	r1, r3
 800161e:	4610      	mov	r0, r2
 8001620:	f000 fa6e 	bl	8001b00 <TIM_Base_SetConfig>

  /* Initialize the DMA burst operation state */
  htim->DMABurstState = HAL_DMA_BURST_STATE_READY;
 8001624:	687b      	ldr	r3, [r7, #4]
 8001626:	2201      	movs	r2, #1
 8001628:	f883 2046 	strb.w	r2, [r3, #70]	; 0x46

  /* Initialize the TIM channels state */
  TIM_CHANNEL_STATE_SET_ALL(htim, HAL_TIM_CHANNEL_STATE_READY);
 800162c:	687b      	ldr	r3, [r7, #4]
 800162e:	2201      	movs	r2, #1
 8001630:	f883 203e 	strb.w	r2, [r3, #62]	; 0x3e
 8001634:	687b      	ldr	r3, [r7, #4]
 8001636:	2201      	movs	r2, #1
 8001638:	f883 203f 	strb.w	r2, [r3, #63]	; 0x3f
 800163c:	687b      	ldr	r3, [r7, #4]
 800163e:	2201      	movs	r2, #1
 8001640:	f883 2040 	strb.w	r2, [r3, #64]	; 0x40
 8001644:	687b      	ldr	r3, [r7, #4]
 8001646:	2201      	movs	r2, #1
 8001648:	f883 2041 	strb.w	r2, [r3, #65]	; 0x41
  TIM_CHANNEL_N_STATE_SET_ALL(htim, HAL_TIM_CHANNEL_STATE_READY);
 800164c:	687b      	ldr	r3, [r7, #4]
 800164e:	2201      	movs	r2, #1
 8001650:	f883 2042 	strb.w	r2, [r3, #66]	; 0x42
 8001654:	687b      	ldr	r3, [r7, #4]
 8001656:	2201      	movs	r2, #1
 8001658:	f883 2043 	strb.w	r2, [r3, #67]	; 0x43
 800165c:	687b      	ldr	r3, [r7, #4]
 800165e:	2201      	movs	r2, #1
 8001660:	f883 2044 	strb.w	r2, [r3, #68]	; 0x44
 8001664:	687b      	ldr	r3, [r7, #4]
 8001666:	2201      	movs	r2, #1
 8001668:	f883 2045 	strb.w	r2, [r3, #69]	; 0x45

  /* Initialize the TIM state*/
  htim->State = HAL_TIM_STATE_READY;
 800166c:	687b      	ldr	r3, [r7, #4]
 800166e:	2201      	movs	r2, #1
 8001670:	f883 203d 	strb.w	r2, [r3, #61]	; 0x3d

  return HAL_OK;
 8001674:	2300      	movs	r3, #0
}
 8001676:	4618      	mov	r0, r3
 8001678:	3708      	adds	r7, #8
 800167a:	46bd      	mov	sp, r7
 800167c:	bd80      	pop	{r7, pc}
	...

08001680 <HAL_TIM_Base_Start_IT>:
  * @brief  Starts the TIM Base generation in interrupt mode.
  * @param  htim TIM Base handle
  * @retval HAL status
  */
HAL_StatusTypeDef HAL_TIM_Base_Start_IT(TIM_HandleTypeDef *htim)
{
 8001680:	b480      	push	{r7}
 8001682:	b085      	sub	sp, #20
 8001684:	af00      	add	r7, sp, #0
 8001686:	6078      	str	r0, [r7, #4]

  /* Check the parameters */
  assert_param(IS_TIM_INSTANCE(htim->Instance));

  /* Check the TIM state */
  if (htim->State != HAL_TIM_STATE_READY)
 8001688:	687b      	ldr	r3, [r7, #4]
 800168a:	f893 303d 	ldrb.w	r3, [r3, #61]	; 0x3d
 800168e:	b2db      	uxtb	r3, r3
 8001690:	2b01      	cmp	r3, #1
 8001692:	d001      	beq.n	8001698 <HAL_TIM_Base_Start_IT+0x18>
  {
    return HAL_ERROR;
 8001694:	2301      	movs	r3, #1
 8001696:	e035      	b.n	8001704 <HAL_TIM_Base_Start_IT+0x84>
  }

  /* Set the TIM state */
  htim->State = HAL_TIM_STATE_BUSY;
 8001698:	687b      	ldr	r3, [r7, #4]
 800169a:	2202      	movs	r2, #2
 800169c:	f883 203d 	strb.w	r2, [r3, #61]	; 0x3d

  /* Enable the TIM Update interrupt */
  __HAL_TIM_ENABLE_IT(htim, TIM_IT_UPDATE);
 80016a0:	687b      	ldr	r3, [r7, #4]
 80016a2:	681b      	ldr	r3, [r3, #0]
 80016a4:	68da      	ldr	r2, [r3, #12]
 80016a6:	687b      	ldr	r3, [r7, #4]
 80016a8:	681b      	ldr	r3, [r3, #0]
 80016aa:	f042 0201 	orr.w	r2, r2, #1
 80016ae:	60da      	str	r2, [r3, #12]

  /* Enable the Peripheral, except in trigger mode where enable is automatically done with trigger */
  if (IS_TIM_SLAVE_INSTANCE(htim->Instance))
 80016b0:	687b      	ldr	r3, [r7, #4]
 80016b2:	681b      	ldr	r3, [r3, #0]
 80016b4:	4a16      	ldr	r2, [pc, #88]	; (8001710 <HAL_TIM_Base_Start_IT+0x90>)
 80016b6:	4293      	cmp	r3, r2
 80016b8:	d009      	beq.n	80016ce <HAL_TIM_Base_Start_IT+0x4e>
 80016ba:	687b      	ldr	r3, [r7, #4]
 80016bc:	681b      	ldr	r3, [r3, #0]
 80016be:	f1b3 4f80 	cmp.w	r3, #1073741824	; 0x40000000
 80016c2:	d004      	beq.n	80016ce <HAL_TIM_Base_Start_IT+0x4e>
 80016c4:	687b      	ldr	r3, [r7, #4]
 80016c6:	681b      	ldr	r3, [r3, #0]
 80016c8:	4a12      	ldr	r2, [pc, #72]	; (8001714 <HAL_TIM_Base_Start_IT+0x94>)
 80016ca:	4293      	cmp	r3, r2
 80016cc:	d111      	bne.n	80016f2 <HAL_TIM_Base_Start_IT+0x72>
  {
    tmpsmcr = htim->Instance->SMCR & TIM_SMCR_SMS;
 80016ce:	687b      	ldr	r3, [r7, #4]
 80016d0:	681b      	ldr	r3, [r3, #0]
 80016d2:	689b      	ldr	r3, [r3, #8]
 80016d4:	f003 0307 	and.w	r3, r3, #7
 80016d8:	60fb      	str	r3, [r7, #12]
    if (!IS_TIM_SLAVEMODE_TRIGGER_ENABLED(tmpsmcr))
 80016da:	68fb      	ldr	r3, [r7, #12]
 80016dc:	2b06      	cmp	r3, #6
 80016de:	d010      	beq.n	8001702 <HAL_TIM_Base_Start_IT+0x82>
    {
      __HAL_TIM_ENABLE(htim);
 80016e0:	687b      	ldr	r3, [r7, #4]
 80016e2:	681b      	ldr	r3, [r3, #0]
 80016e4:	681a      	ldr	r2, [r3, #0]
 80016e6:	687b      	ldr	r3, [r7, #4]
 80016e8:	681b      	ldr	r3, [r3, #0]
 80016ea:	f042 0201 	orr.w	r2, r2, #1
 80016ee:	601a      	str	r2, [r3, #0]
    if (!IS_TIM_SLAVEMODE_TRIGGER_ENABLED(tmpsmcr))
 80016f0:	e007      	b.n	8001702 <HAL_TIM_Base_Start_IT+0x82>
    }
  }
  else
  {
    __HAL_TIM_ENABLE(htim);
 80016f2:	687b      	ldr	r3, [r7, #4]
 80016f4:	681b      	ldr	r3, [r3, #0]
 80016f6:	681a      	ldr	r2, [r3, #0]
 80016f8:	687b      	ldr	r3, [r7, #4]
 80016fa:	681b      	ldr	r3, [r3, #0]
 80016fc:	f042 0201 	orr.w	r2, r2, #1
 8001700:	601a      	str	r2, [r3, #0]
  }

  /* Return function status */
  return HAL_OK;
 8001702:	2300      	movs	r3, #0
}
 8001704:	4618      	mov	r0, r3
 8001706:	3714      	adds	r7, #20
 8001708:	46bd      	mov	sp, r7
 800170a:	bc80      	pop	{r7}
 800170c:	4770      	bx	lr
 800170e:	bf00      	nop
 8001710:	40012c00 	.word	0x40012c00
 8001714:	40000400 	.word	0x40000400

08001718 <HAL_TIM_IRQHandler>:
  * @brief  This function handles TIM interrupts requests.
  * @param  htim TIM  handle
  * @retval None
  */
void HAL_TIM_IRQHandler(TIM_HandleTypeDef *htim)
{
 8001718:	b580      	push	{r7, lr}
 800171a:	b082      	sub	sp, #8
 800171c:	af00      	add	r7, sp, #0
 800171e:	6078      	str	r0, [r7, #4]
  /* Capture compare 1 event */
  if (__HAL_TIM_GET_FLAG(htim, TIM_FLAG_CC1) != RESET)
 8001720:	687b      	ldr	r3, [r7, #4]
 8001722:	681b      	ldr	r3, [r3, #0]
 8001724:	691b      	ldr	r3, [r3, #16]
 8001726:	f003 0302 	and.w	r3, r3, #2
 800172a:	2b02      	cmp	r3, #2
 800172c:	d122      	bne.n	8001774 <HAL_TIM_IRQHandler+0x5c>
  {
    if (__HAL_TIM_GET_IT_SOURCE(htim, TIM_IT_CC1) != RESET)
 800172e:	687b      	ldr	r3, [r7, #4]
 8001730:	681b      	ldr	r3, [r3, #0]
 8001732:	68db      	ldr	r3, [r3, #12]
 8001734:	f003 0302 	and.w	r3, r3, #2
 8001738:	2b02      	cmp	r3, #2
 800173a:	d11b      	bne.n	8001774 <HAL_TIM_IRQHandler+0x5c>
    {
      {
        __HAL_TIM_CLEAR_IT(htim, TIM_IT_CC1);
 800173c:	687b      	ldr	r3, [r7, #4]
 800173e:	681b      	ldr	r3, [r3, #0]
 8001740:	f06f 0202 	mvn.w	r2, #2
 8001744:	611a      	str	r2, [r3, #16]
        htim->Channel = HAL_TIM_ACTIVE_CHANNEL_1;
 8001746:	687b      	ldr	r3, [r7, #4]
 8001748:	2201      	movs	r2, #1
 800174a:	771a      	strb	r2, [r3, #28]

        /* Input capture event */
        if ((htim->Instance->CCMR1 & TIM_CCMR1_CC1S) != 0x00U)
 800174c:	687b      	ldr	r3, [r7, #4]
 800174e:	681b      	ldr	r3, [r3, #0]
 8001750:	699b      	ldr	r3, [r3, #24]
 8001752:	f003 0303 	and.w	r3, r3, #3
 8001756:	2b00      	cmp	r3, #0
 8001758:	d003      	beq.n	8001762 <HAL_TIM_IRQHandler+0x4a>
        {
#if (USE_HAL_TIM_REGISTER_CALLBACKS == 1)
          htim->IC_CaptureCallback(htim);
#else
          HAL_TIM_IC_CaptureCallback(htim);
 800175a:	6878      	ldr	r0, [r7, #4]
 800175c:	f000 f9b4 	bl	8001ac8 <HAL_TIM_IC_CaptureCallback>
 8001760:	e005      	b.n	800176e <HAL_TIM_IRQHandler+0x56>
        {
#if (USE_HAL_TIM_REGISTER_CALLBACKS == 1)
          htim->OC_DelayElapsedCallback(htim);
          htim->PWM_PulseFinishedCallback(htim);
#else
          HAL_TIM_OC_DelayElapsedCallback(htim);
 8001762:	6878      	ldr	r0, [r7, #4]
 8001764:	f000 f9a7 	bl	8001ab6 <HAL_TIM_OC_DelayElapsedCallback>
          HAL_TIM_PWM_PulseFinishedCallback(htim);
 8001768:	6878      	ldr	r0, [r7, #4]
 800176a:	f000 f9b6 	bl	8001ada <HAL_TIM_PWM_PulseFinishedCallback>
#endif /* USE_HAL_TIM_REGISTER_CALLBACKS */
        }
        htim->Channel = HAL_TIM_ACTIVE_CHANNEL_CLEARED;
 800176e:	687b      	ldr	r3, [r7, #4]
 8001770:	2200      	movs	r2, #0
 8001772:	771a      	strb	r2, [r3, #28]
      }
    }
  }
  /* Capture compare 2 event */
  if (__HAL_TIM_GET_FLAG(htim, TIM_FLAG_CC2) != RESET)
 8001774:	687b      	ldr	r3, [r7, #4]
 8001776:	681b      	ldr	r3, [r3, #0]
 8001778:	691b      	ldr	r3, [r3, #16]
 800177a:	f003 0304 	and.w	r3, r3, #4
 800177e:	2b04      	cmp	r3, #4
 8001780:	d122      	bne.n	80017c8 <HAL_TIM_IRQHandler+0xb0>
  {
    if (__HAL_TIM_GET_IT_SOURCE(htim, TIM_IT_CC2) != RESET)
 8001782:	687b      	ldr	r3, [r7, #4]
 8001784:	681b      	ldr	r3, [r3, #0]
 8001786:	68db      	ldr	r3, [r3, #12]
 8001788:	f003 0304 	and.w	r3, r3, #4
 800178c:	2b04      	cmp	r3, #4
 800178e:	d11b      	bne.n	80017c8 <HAL_TIM_IRQHandler+0xb0>
    {
      __HAL_TIM_CLEAR_IT(htim, TIM_IT_CC2);
 8001790:	687b      	ldr	r3, [r7, #4]
 8001792:	681b      	ldr	r3, [r3, #0]
 8001794:	f06f 0204 	mvn.w	r2, #4
 8001798:	611a      	str	r2, [r3, #16]
      htim->Channel = HAL_TIM_ACTIVE_CHANNEL_2;
 800179a:	687b      	ldr	r3, [r7, #4]
 800179c:	2202      	movs	r2, #2
 800179e:	771a      	strb	r2, [r3, #28]
      /* Input capture event */
      if ((htim->Instance->CCMR1 & TIM_CCMR1_CC2S) != 0x00U)
 80017a0:	687b      	ldr	r3, [r7, #4]
 80017a2:	681b      	ldr	r3, [r3, #0]
 80017a4:	699b      	ldr	r3, [r3, #24]
 80017a6:	f403 7340 	and.w	r3, r3, #768	; 0x300
 80017aa:	2b00      	cmp	r3, #0
 80017ac:	d003      	beq.n	80017b6 <HAL_TIM_IRQHandler+0x9e>
      {
#if (USE_HAL_TIM_REGISTER_CALLBACKS == 1)
        htim->IC_CaptureCallback(htim);
#else
        HAL_TIM_IC_CaptureCallback(htim);
 80017ae:	6878      	ldr	r0, [r7, #4]
 80017b0:	f000 f98a 	bl	8001ac8 <HAL_TIM_IC_CaptureCallback>
 80017b4:	e005      	b.n	80017c2 <HAL_TIM_IRQHandler+0xaa>
      {
#if (USE_HAL_TIM_REGISTER_CALLBACKS == 1)
        htim->OC_DelayElapsedCallback(htim);
        htim->PWM_PulseFinishedCallback(htim);
#else
        HAL_TIM_OC_DelayElapsedCallback(htim);
 80017b6:	6878      	ldr	r0, [r7, #4]
 80017b8:	f000 f97d 	bl	8001ab6 <HAL_TIM_OC_DelayElapsedCallback>
        HAL_TIM_PWM_PulseFinishedCallback(htim);
 80017bc:	6878      	ldr	r0, [r7, #4]
 80017be:	f000 f98c 	bl	8001ada <HAL_TIM_PWM_PulseFinishedCallback>
#endif /* USE_HAL_TIM_REGISTER_CALLBACKS */
      }
      htim->Channel = HAL_TIM_ACTIVE_CHANNEL_CLEARED;
 80017c2:	687b      	ldr	r3, [r7, #4]
 80017c4:	2200      	movs	r2, #0
 80017c6:	771a      	strb	r2, [r3, #28]
    }
  }
  /* Capture compare 3 event */
  if (__HAL_TIM_GET_FLAG(htim, TIM_FLAG_CC3) != RESET)
 80017c8:	687b      	ldr	r3, [r7, #4]
 80017ca:	681b      	ldr	r3, [r3, #0]
 80017cc:	691b      	ldr	r3, [r3, #16]
 80017ce:	f003 0308 	and.w	r3, r3, #8
 80017d2:	2b08      	cmp	r3, #8
 80017d4:	d122      	bne.n	800181c <HAL_TIM_IRQHandler+0x104>
  {
    if (__HAL_TIM_GET_IT_SOURCE(htim, TIM_IT_CC3) != RESET)
 80017d6:	687b      	ldr	r3, [r7, #4]
 80017d8:	681b      	ldr	r3, [r3, #0]
 80017da:	68db      	ldr	r3, [r3, #12]
 80017dc:	f003 0308 	and.w	r3, r3, #8
 80017e0:	2b08      	cmp	r3, #8
 80017e2:	d11b      	bne.n	800181c <HAL_TIM_IRQHandler+0x104>
    {
      __HAL_TIM_CLEAR_IT(htim, TIM_IT_CC3);
 80017e4:	687b      	ldr	r3, [r7, #4]
 80017e6:	681b      	ldr	r3, [r3, #0]
 80017e8:	f06f 0208 	mvn.w	r2, #8
 80017ec:	611a      	str	r2, [r3, #16]
      htim->Channel = HAL_TIM_ACTIVE_CHANNEL_3;
 80017ee:	687b      	ldr	r3, [r7, #4]
 80017f0:	2204      	movs	r2, #4
 80017f2:	771a      	strb	r2, [r3, #28]
      /* Input capture event */
      if ((htim->Instance->CCMR2 & TIM_CCMR2_CC3S) != 0x00U)
 80017f4:	687b      	ldr	r3, [r7, #4]
 80017f6:	681b      	ldr	r3, [r3, #0]
 80017f8:	69db      	ldr	r3, [r3, #28]
 80017fa:	f003 0303 	and.w	r3, r3, #3
 80017fe:	2b00      	cmp	r3, #0
 8001800:	d003      	beq.n	800180a <HAL_TIM_IRQHandler+0xf2>
      {
#if (USE_HAL_TIM_REGISTER_CALLBACKS == 1)
        htim->IC_CaptureCallback(htim);
#else
        HAL_TIM_IC_CaptureCallback(htim);
 8001802:	6878      	ldr	r0, [r7, #4]
 8001804:	f000 f960 	bl	8001ac8 <HAL_TIM_IC_CaptureCallback>
 8001808:	e005      	b.n	8001816 <HAL_TIM_IRQHandler+0xfe>
      {
#if (USE_HAL_TIM_REGISTER_CALLBACKS == 1)
        htim->OC_DelayElapsedCallback(htim);
        htim->PWM_PulseFinishedCallback(htim);
#else
        HAL_TIM_OC_DelayElapsedCallback(htim);
 800180a:	6878      	ldr	r0, [r7, #4]
 800180c:	f000 f953 	bl	8001ab6 <HAL_TIM_OC_DelayElapsedCallback>
        HAL_TIM_PWM_PulseFinishedCallback(htim);
 8001810:	6878      	ldr	r0, [r7, #4]
 8001812:	f000 f962 	bl	8001ada <HAL_TIM_PWM_PulseFinishedCallback>
#endif /* USE_HAL_TIM_REGISTER_CALLBACKS */
      }
      htim->Channel = HAL_TIM_ACTIVE_CHANNEL_CLEARED;
 8001816:	687b      	ldr	r3, [r7, #4]
 8001818:	2200      	movs	r2, #0
 800181a:	771a      	strb	r2, [r3, #28]
    }
  }
  /* Capture compare 4 event */
  if (__HAL_TIM_GET_FLAG(htim, TIM_FLAG_CC4) != RESET)
 800181c:	687b      	ldr	r3, [r7, #4]
 800181e:	681b      	ldr	r3, [r3, #0]
 8001820:	691b      	ldr	r3, [r3, #16]
 8001822:	f003 0310 	and.w	r3, r3, #16
 8001826:	2b10      	cmp	r3, #16
 8001828:	d122      	bne.n	8001870 <HAL_TIM_IRQHandler+0x158>
  {
    if (__HAL_TIM_GET_IT_SOURCE(htim, TIM_IT_CC4) != RESET)
 800182a:	687b      	ldr	r3, [r7, #4]
 800182c:	681b      	ldr	r3, [r3, #0]
 800182e:	68db      	ldr	r3, [r3, #12]
 8001830:	f003 0310 	and.w	r3, r3, #16
 8001834:	2b10      	cmp	r3, #16
 8001836:	d11b      	bne.n	8001870 <HAL_TIM_IRQHandler+0x158>
    {
      __HAL_TIM_CLEAR_IT(htim, TIM_IT_CC4);
 8001838:	687b      	ldr	r3, [r7, #4]
 800183a:	681b      	ldr	r3, [r3, #0]
 800183c:	f06f 0210 	mvn.w	r2, #16
 8001840:	611a      	str	r2, [r3, #16]
      htim->Channel = HAL_TIM_ACTIVE_CHANNEL_4;
 8001842:	687b      	ldr	r3, [r7, #4]
 8001844:	2208      	movs	r2, #8
 8001846:	771a      	strb	r2, [r3, #28]
      /* Input capture event */
      if ((htim->Instance->CCMR2 & TIM_CCMR2_CC4S) != 0x00U)
 8001848:	687b      	ldr	r3, [r7, #4]
 800184a:	681b      	ldr	r3, [r3, #0]
 800184c:	69db      	ldr	r3, [r3, #28]
 800184e:	f403 7340 	and.w	r3, r3, #768	; 0x300
 8001852:	2b00      	cmp	r3, #0
 8001854:	d003      	beq.n	800185e <HAL_TIM_IRQHandler+0x146>
      {
#if (USE_HAL_TIM_REGISTER_CALLBACKS == 1)
        htim->IC_CaptureCallback(htim);
#else
        HAL_TIM_IC_CaptureCallback(htim);
 8001856:	6878      	ldr	r0, [r7, #4]
 8001858:	f000 f936 	bl	8001ac8 <HAL_TIM_IC_CaptureCallback>
 800185c:	e005      	b.n	800186a <HAL_TIM_IRQHandler+0x152>
      {
#if (USE_HAL_TIM_REGISTER_CALLBACKS == 1)
        htim->OC_DelayElapsedCallback(htim);
        htim->PWM_PulseFinishedCallback(htim);
#else
        HAL_TIM_OC_DelayElapsedCallback(htim);
 800185e:	6878      	ldr	r0, [r7, #4]
 8001860:	f000 f929 	bl	8001ab6 <HAL_TIM_OC_DelayElapsedCallback>
        HAL_TIM_PWM_PulseFinishedCallback(htim);
 8001864:	6878      	ldr	r0, [r7, #4]
 8001866:	f000 f938 	bl	8001ada <HAL_TIM_PWM_PulseFinishedCallback>
#endif /* USE_HAL_TIM_REGISTER_CALLBACKS */
      }
      htim->Channel = HAL_TIM_ACTIVE_CHANNEL_CLEARED;
 800186a:	687b      	ldr	r3, [r7, #4]
 800186c:	2200      	movs	r2, #0
 800186e:	771a      	strb	r2, [r3, #28]
    }
  }
  /* TIM Update event */
  if (__HAL_TIM_GET_FLAG(htim, TIM_FLAG_UPDATE) != RESET)
 8001870:	687b      	ldr	r3, [r7, #4]
 8001872:	681b      	ldr	r3, [r3, #0]
 8001874:	691b      	ldr	r3, [r3, #16]
 8001876:	f003 0301 	and.w	r3, r3, #1
 800187a:	2b01      	cmp	r3, #1
 800187c:	d10e      	bne.n	800189c <HAL_TIM_IRQHandler+0x184>
  {
    if (__HAL_TIM_GET_IT_SOURCE(htim, TIM_IT_UPDATE) != RESET)
 800187e:	687b      	ldr	r3, [r7, #4]
 8001880:	681b      	ldr	r3, [r3, #0]
 8001882:	68db      	ldr	r3, [r3, #12]
 8001884:	f003 0301 	and.w	r3, r3, #1
 8001888:	2b01      	cmp	r3, #1
 800188a:	d107      	bne.n	800189c <HAL_TIM_IRQHandler+0x184>
    {
      __HAL_TIM_CLEAR_IT(htim, TIM_IT_UPDATE);
 800188c:	687b      	ldr	r3, [r7, #4]
 800188e:	681b      	ldr	r3, [r3, #0]
 8001890:	f06f 0201 	mvn.w	r2, #1
 8001894:	611a      	str	r2, [r3, #16]
#if (USE_HAL_TIM_REGISTER_CALLBACKS == 1)
      htim->PeriodElapsedCallback(htim);
#else
      HAL_TIM_PeriodElapsedCallback(htim);
 8001896:	6878      	ldr	r0, [r7, #4]
 8001898:	f7fe fd86 	bl	80003a8 <HAL_TIM_PeriodElapsedCallback>
#endif /* USE_HAL_TIM_REGISTER_CALLBACKS */
    }
  }
  /* TIM Break input event */
  if (__HAL_TIM_GET_FLAG(htim, TIM_FLAG_BREAK) != RESET)
 800189c:	687b      	ldr	r3, [r7, #4]
 800189e:	681b      	ldr	r3, [r3, #0]
 80018a0:	691b      	ldr	r3, [r3, #16]
 80018a2:	f003 0380 	and.w	r3, r3, #128	; 0x80
 80018a6:	2b80      	cmp	r3, #128	; 0x80
 80018a8:	d10e      	bne.n	80018c8 <HAL_TIM_IRQHandler+0x1b0>
  {
    if (__HAL_TIM_GET_IT_SOURCE(htim, TIM_IT_BREAK) != RESET)
 80018aa:	687b      	ldr	r3, [r7, #4]
 80018ac:	681b      	ldr	r3, [r3, #0]
 80018ae:	68db      	ldr	r3, [r3, #12]
 80018b0:	f003 0380 	and.w	r3, r3, #128	; 0x80
 80018b4:	2b80      	cmp	r3, #128	; 0x80
 80018b6:	d107      	bne.n	80018c8 <HAL_TIM_IRQHandler+0x1b0>
    {
      __HAL_TIM_CLEAR_IT(htim, TIM_IT_BREAK);
 80018b8:	687b      	ldr	r3, [r7, #4]
 80018ba:	681b      	ldr	r3, [r3, #0]
 80018bc:	f06f 0280 	mvn.w	r2, #128	; 0x80
 80018c0:	611a      	str	r2, [r3, #16]
#if (USE_HAL_TIM_REGISTER_CALLBACKS == 1)
      htim->BreakCallback(htim);
#else
      HAL_TIMEx_BreakCallback(htim);
 80018c2:	6878      	ldr	r0, [r7, #4]
 80018c4:	f000 fa6b 	bl	8001d9e <HAL_TIMEx_BreakCallback>
#endif /* USE_HAL_TIM_REGISTER_CALLBACKS */
    }
  }
  /* TIM Trigger detection event */
  if (__HAL_TIM_GET_FLAG(htim, TIM_FLAG_TRIGGER) != RESET)
 80018c8:	687b      	ldr	r3, [r7, #4]
 80018ca:	681b      	ldr	r3, [r3, #0]
 80018cc:	691b      	ldr	r3, [r3, #16]
 80018ce:	f003 0340 	and.w	r3, r3, #64	; 0x40
 80018d2:	2b40      	cmp	r3, #64	; 0x40
 80018d4:	d10e      	bne.n	80018f4 <HAL_TIM_IRQHandler+0x1dc>
  {
    if (__HAL_TIM_GET_IT_SOURCE(htim, TIM_IT_TRIGGER) != RESET)
 80018d6:	687b      	ldr	r3, [r7, #4]
 80018d8:	681b      	ldr	r3, [r3, #0]
 80018da:	68db      	ldr	r3, [r3, #12]
 80018dc:	f003 0340 	and.w	r3, r3, #64	; 0x40
 80018e0:	2b40      	cmp	r3, #64	; 0x40
 80018e2:	d107      	bne.n	80018f4 <HAL_TIM_IRQHandler+0x1dc>
    {
      __HAL_TIM_CLEAR_IT(htim, TIM_IT_TRIGGER);
 80018e4:	687b      	ldr	r3, [r7, #4]
 80018e6:	681b      	ldr	r3, [r3, #0]
 80018e8:	f06f 0240 	mvn.w	r2, #64	; 0x40
 80018ec:	611a      	str	r2, [r3, #16]
#if (USE_HAL_TIM_REGISTER_CALLBACKS == 1)
      htim->TriggerCallback(htim);
#else
      HAL_TIM_TriggerCallback(htim);
 80018ee:	6878      	ldr	r0, [r7, #4]
 80018f0:	f000 f8fc 	bl	8001aec <HAL_TIM_TriggerCallback>
#endif /* USE_HAL_TIM_REGISTER_CALLBACKS */
    }
  }
  /* TIM commutation event */
  if (__HAL_TIM_GET_FLAG(htim, TIM_FLAG_COM) != RESET)
 80018f4:	687b      	ldr	r3, [r7, #4]
 80018f6:	681b      	ldr	r3, [r3, #0]
 80018f8:	691b      	ldr	r3, [r3, #16]
 80018fa:	f003 0320 	and.w	r3, r3, #32
 80018fe:	2b20      	cmp	r3, #32
 8001900:	d10e      	bne.n	8001920 <HAL_TIM_IRQHandler+0x208>
  {
    if (__HAL_TIM_GET_IT_SOURCE(htim, TIM_IT_COM) != RESET)
 8001902:	687b      	ldr	r3, [r7, #4]
 8001904:	681b      	ldr	r3, [r3, #0]
 8001906:	68db      	ldr	r3, [r3, #12]
 8001908:	f003 0320 	and.w	r3, r3, #32
 800190c:	2b20      	cmp	r3, #32
 800190e:	d107      	bne.n	8001920 <HAL_TIM_IRQHandler+0x208>
    {
      __HAL_TIM_CLEAR_IT(htim, TIM_FLAG_COM);
 8001910:	687b      	ldr	r3, [r7, #4]
 8001912:	681b      	ldr	r3, [r3, #0]
 8001914:	f06f 0220 	mvn.w	r2, #32
 8001918:	611a      	str	r2, [r3, #16]
#if (USE_HAL_TIM_REGISTER_CALLBACKS == 1)
      htim->CommutationCallback(htim);
#else
      HAL_TIMEx_CommutCallback(htim);
 800191a:	6878      	ldr	r0, [r7, #4]
 800191c:	f000 fa36 	bl	8001d8c <HAL_TIMEx_CommutCallback>
#endif /* USE_HAL_TIM_REGISTER_CALLBACKS */
    }
  }
}
 8001920:	bf00      	nop
 8001922:	3708      	adds	r7, #8
 8001924:	46bd      	mov	sp, r7
 8001926:	bd80      	pop	{r7, pc}

08001928 <HAL_TIM_ConfigClockSource>:
  * @param  sClockSourceConfig pointer to a TIM_ClockConfigTypeDef structure that
  *         contains the clock source information for the TIM peripheral.
  * @retval HAL status
  */
HAL_StatusTypeDef HAL_TIM_ConfigClockSource(TIM_HandleTypeDef *htim, const TIM_ClockConfigTypeDef *sClockSourceConfig)
{
 8001928:	b580      	push	{r7, lr}
 800192a:	b084      	sub	sp, #16
 800192c:	af00      	add	r7, sp, #0
 800192e:	6078      	str	r0, [r7, #4]
 8001930:	6039      	str	r1, [r7, #0]
  HAL_StatusTypeDef status = HAL_OK;
 8001932:	2300      	movs	r3, #0
 8001934:	73fb      	strb	r3, [r7, #15]
  uint32_t tmpsmcr;

  /* Process Locked */
  __HAL_LOCK(htim);
 8001936:	687b      	ldr	r3, [r7, #4]
 8001938:	f893 303c 	ldrb.w	r3, [r3, #60]	; 0x3c
 800193c:	2b01      	cmp	r3, #1
 800193e:	d101      	bne.n	8001944 <HAL_TIM_ConfigClockSource+0x1c>
 8001940:	2302      	movs	r3, #2
 8001942:	e0b4      	b.n	8001aae <HAL_TIM_ConfigClockSource+0x186>
 8001944:	687b      	ldr	r3, [r7, #4]
 8001946:	2201      	movs	r2, #1
 8001948:	f883 203c 	strb.w	r2, [r3, #60]	; 0x3c

  htim->State = HAL_TIM_STATE_BUSY;
 800194c:	687b      	ldr	r3, [r7, #4]
 800194e:	2202      	movs	r2, #2
 8001950:	f883 203d 	strb.w	r2, [r3, #61]	; 0x3d

  /* Check the parameters */
  assert_param(IS_TIM_CLOCKSOURCE(sClockSourceConfig->ClockSource));

  /* Reset the SMS, TS, ECE, ETPS and ETRF bits */
  tmpsmcr = htim->Instance->SMCR;
 8001954:	687b      	ldr	r3, [r7, #4]
 8001956:	681b      	ldr	r3, [r3, #0]
 8001958:	689b      	ldr	r3, [r3, #8]
 800195a:	60bb      	str	r3, [r7, #8]
  tmpsmcr &= ~(TIM_SMCR_SMS | TIM_SMCR_TS);
 800195c:	68bb      	ldr	r3, [r7, #8]
 800195e:	f023 0377 	bic.w	r3, r3, #119	; 0x77
 8001962:	60bb      	str	r3, [r7, #8]
  tmpsmcr &= ~(TIM_SMCR_ETF | TIM_SMCR_ETPS | TIM_SMCR_ECE | TIM_SMCR_ETP);
 8001964:	68bb      	ldr	r3, [r7, #8]
 8001966:	f423 437f 	bic.w	r3, r3, #65280	; 0xff00
 800196a:	60bb      	str	r3, [r7, #8]
  htim->Instance->SMCR = tmpsmcr;
 800196c:	687b      	ldr	r3, [r7, #4]
 800196e:	681b      	ldr	r3, [r3, #0]
 8001970:	68ba      	ldr	r2, [r7, #8]
 8001972:	609a      	str	r2, [r3, #8]

  switch (sClockSourceConfig->ClockSource)
 8001974:	683b      	ldr	r3, [r7, #0]
 8001976:	681b      	ldr	r3, [r3, #0]
 8001978:	f5b3 5f00 	cmp.w	r3, #8192	; 0x2000
 800197c:	d03e      	beq.n	80019fc <HAL_TIM_ConfigClockSource+0xd4>
 800197e:	f5b3 5f00 	cmp.w	r3, #8192	; 0x2000
 8001982:	f200 8087 	bhi.w	8001a94 <HAL_TIM_ConfigClockSource+0x16c>
 8001986:	f5b3 5f80 	cmp.w	r3, #4096	; 0x1000
 800198a:	f000 8086 	beq.w	8001a9a <HAL_TIM_ConfigClockSource+0x172>
 800198e:	f5b3 5f80 	cmp.w	r3, #4096	; 0x1000
 8001992:	d87f      	bhi.n	8001a94 <HAL_TIM_ConfigClockSource+0x16c>
 8001994:	2b70      	cmp	r3, #112	; 0x70
 8001996:	d01a      	beq.n	80019ce <HAL_TIM_ConfigClockSource+0xa6>
 8001998:	2b70      	cmp	r3, #112	; 0x70
 800199a:	d87b      	bhi.n	8001a94 <HAL_TIM_ConfigClockSource+0x16c>
 800199c:	2b60      	cmp	r3, #96	; 0x60
 800199e:	d050      	beq.n	8001a42 <HAL_TIM_ConfigClockSource+0x11a>
 80019a0:	2b60      	cmp	r3, #96	; 0x60
 80019a2:	d877      	bhi.n	8001a94 <HAL_TIM_ConfigClockSource+0x16c>
 80019a4:	2b50      	cmp	r3, #80	; 0x50
 80019a6:	d03c      	beq.n	8001a22 <HAL_TIM_ConfigClockSource+0xfa>
 80019a8:	2b50      	cmp	r3, #80	; 0x50
 80019aa:	d873      	bhi.n	8001a94 <HAL_TIM_ConfigClockSource+0x16c>
 80019ac:	2b40      	cmp	r3, #64	; 0x40
 80019ae:	d058      	beq.n	8001a62 <HAL_TIM_ConfigClockSource+0x13a>
 80019b0:	2b40      	cmp	r3, #64	; 0x40
 80019b2:	d86f      	bhi.n	8001a94 <HAL_TIM_ConfigClockSource+0x16c>
 80019b4:	2b30      	cmp	r3, #48	; 0x30
 80019b6:	d064      	beq.n	8001a82 <HAL_TIM_ConfigClockSource+0x15a>
 80019b8:	2b30      	cmp	r3, #48	; 0x30
 80019ba:	d86b      	bhi.n	8001a94 <HAL_TIM_ConfigClockSource+0x16c>
 80019bc:	2b20      	cmp	r3, #32
 80019be:	d060      	beq.n	8001a82 <HAL_TIM_ConfigClockSource+0x15a>
 80019c0:	2b20      	cmp	r3, #32
 80019c2:	d867      	bhi.n	8001a94 <HAL_TIM_ConfigClockSource+0x16c>
 80019c4:	2b00      	cmp	r3, #0
 80019c6:	d05c      	beq.n	8001a82 <HAL_TIM_ConfigClockSource+0x15a>
 80019c8:	2b10      	cmp	r3, #16
 80019ca:	d05a      	beq.n	8001a82 <HAL_TIM_ConfigClockSource+0x15a>
 80019cc:	e062      	b.n	8001a94 <HAL_TIM_ConfigClockSource+0x16c>
      assert_param(IS_TIM_CLOCKPRESCALER(sClockSourceConfig->ClockPrescaler));
      assert_param(IS_TIM_CLOCKPOLARITY(sClockSourceConfig->ClockPolarity));
      assert_param(IS_TIM_CLOCKFILTER(sClockSourceConfig->ClockFilter));

      /* Configure the ETR Clock source */
      TIM_ETR_SetConfig(htim->Instance,
 80019ce:	687b      	ldr	r3, [r7, #4]
 80019d0:	6818      	ldr	r0, [r3, #0]
 80019d2:	683b      	ldr	r3, [r7, #0]
 80019d4:	6899      	ldr	r1, [r3, #8]
 80019d6:	683b      	ldr	r3, [r7, #0]
 80019d8:	685a      	ldr	r2, [r3, #4]
 80019da:	683b      	ldr	r3, [r7, #0]
 80019dc:	68db      	ldr	r3, [r3, #12]
 80019de:	f000 f95e 	bl	8001c9e <TIM_ETR_SetConfig>
                        sClockSourceConfig->ClockPrescaler,
                        sClockSourceConfig->ClockPolarity,
                        sClockSourceConfig->ClockFilter);

      /* Select the External clock mode1 and the ETRF trigger */
      tmpsmcr = htim->Instance->SMCR;
 80019e2:	687b      	ldr	r3, [r7, #4]
 80019e4:	681b      	ldr	r3, [r3, #0]
 80019e6:	689b      	ldr	r3, [r3, #8]
 80019e8:	60bb      	str	r3, [r7, #8]
      tmpsmcr |= (TIM_SLAVEMODE_EXTERNAL1 | TIM_CLOCKSOURCE_ETRMODE1);
 80019ea:	68bb      	ldr	r3, [r7, #8]
 80019ec:	f043 0377 	orr.w	r3, r3, #119	; 0x77
 80019f0:	60bb      	str	r3, [r7, #8]
      /* Write to TIMx SMCR */
      htim->Instance->SMCR = tmpsmcr;
 80019f2:	687b      	ldr	r3, [r7, #4]
 80019f4:	681b      	ldr	r3, [r3, #0]
 80019f6:	68ba      	ldr	r2, [r7, #8]
 80019f8:	609a      	str	r2, [r3, #8]
      break;
 80019fa:	e04f      	b.n	8001a9c <HAL_TIM_ConfigClockSource+0x174>
      assert_param(IS_TIM_CLOCKPRESCALER(sClockSourceConfig->ClockPrescaler));
      assert_param(IS_TIM_CLOCKPOLARITY(sClockSourceConfig->ClockPolarity));
      assert_param(IS_TIM_CLOCKFILTER(sClockSourceConfig->ClockFilter));

      /* Configure the ETR Clock source */
      TIM_ETR_SetConfig(htim->Instance,
 80019fc:	687b      	ldr	r3, [r7, #4]
 80019fe:	6818      	ldr	r0, [r3, #0]
 8001a00:	683b      	ldr	r3, [r7, #0]
 8001a02:	6899      	ldr	r1, [r3, #8]
 8001a04:	683b      	ldr	r3, [r7, #0]
 8001a06:	685a      	ldr	r2, [r3, #4]
 8001a08:	683b      	ldr	r3, [r7, #0]
 8001a0a:	68db      	ldr	r3, [r3, #12]
 8001a0c:	f000 f947 	bl	8001c9e <TIM_ETR_SetConfig>
                        sClockSourceConfig->ClockPrescaler,
                        sClockSourceConfig->ClockPolarity,
                        sClockSourceConfig->ClockFilter);
      /* Enable the External clock mode2 */
      htim->Instance->SMCR |= TIM_SMCR_ECE;
 8001a10:	687b      	ldr	r3, [r7, #4]
 8001a12:	681b      	ldr	r3, [r3, #0]
 8001a14:	689a      	ldr	r2, [r3, #8]
 8001a16:	687b      	ldr	r3, [r7, #4]
 8001a18:	681b      	ldr	r3, [r3, #0]
 8001a1a:	f442 4280 	orr.w	r2, r2, #16384	; 0x4000
 8001a1e:	609a      	str	r2, [r3, #8]
      break;
 8001a20:	e03c      	b.n	8001a9c <HAL_TIM_ConfigClockSource+0x174>

      /* Check TI1 input conditioning related parameters */
      assert_param(IS_TIM_CLOCKPOLARITY(sClockSourceConfig->ClockPolarity));
      assert_param(IS_TIM_CLOCKFILTER(sClockSourceConfig->ClockFilter));

      TIM_TI1_ConfigInputStage(htim->Instance,
 8001a22:	687b      	ldr	r3, [r7, #4]
 8001a24:	6818      	ldr	r0, [r3, #0]
 8001a26:	683b      	ldr	r3, [r7, #0]
 8001a28:	6859      	ldr	r1, [r3, #4]
 8001a2a:	683b      	ldr	r3, [r7, #0]
 8001a2c:	68db      	ldr	r3, [r3, #12]
 8001a2e:	461a      	mov	r2, r3
 8001a30:	f000 f8be 	bl	8001bb0 <TIM_TI1_ConfigInputStage>
                               sClockSourceConfig->ClockPolarity,
                               sClockSourceConfig->ClockFilter);
      TIM_ITRx_SetConfig(htim->Instance, TIM_CLOCKSOURCE_TI1);
 8001a34:	687b      	ldr	r3, [r7, #4]
 8001a36:	681b      	ldr	r3, [r3, #0]
 8001a38:	2150      	movs	r1, #80	; 0x50
 8001a3a:	4618      	mov	r0, r3
 8001a3c:	f000 f915 	bl	8001c6a <TIM_ITRx_SetConfig>
      break;
 8001a40:	e02c      	b.n	8001a9c <HAL_TIM_ConfigClockSource+0x174>

      /* Check TI2 input conditioning related parameters */
      assert_param(IS_TIM_CLOCKPOLARITY(sClockSourceConfig->ClockPolarity));
      assert_param(IS_TIM_CLOCKFILTER(sClockSourceConfig->ClockFilter));

      TIM_TI2_ConfigInputStage(htim->Instance,
 8001a42:	687b      	ldr	r3, [r7, #4]
 8001a44:	6818      	ldr	r0, [r3, #0]
 8001a46:	683b      	ldr	r3, [r7, #0]
 8001a48:	6859      	ldr	r1, [r3, #4]
 8001a4a:	683b      	ldr	r3, [r7, #0]
 8001a4c:	68db      	ldr	r3, [r3, #12]
 8001a4e:	461a      	mov	r2, r3
 8001a50:	f000 f8dc 	bl	8001c0c <TIM_TI2_ConfigInputStage>
                               sClockSourceConfig->ClockPolarity,
                               sClockSourceConfig->ClockFilter);
      TIM_ITRx_SetConfig(htim->Instance, TIM_CLOCKSOURCE_TI2);
 8001a54:	687b      	ldr	r3, [r7, #4]
 8001a56:	681b      	ldr	r3, [r3, #0]
 8001a58:	2160      	movs	r1, #96	; 0x60
 8001a5a:	4618      	mov	r0, r3
 8001a5c:	f000 f905 	bl	8001c6a <TIM_ITRx_SetConfig>
      break;
 8001a60:	e01c      	b.n	8001a9c <HAL_TIM_ConfigClockSource+0x174>

      /* Check TI1 input conditioning related parameters */
      assert_param(IS_TIM_CLOCKPOLARITY(sClockSourceConfig->ClockPolarity));
      assert_param(IS_TIM_CLOCKFILTER(sClockSourceConfig->ClockFilter));

      TIM_TI1_ConfigInputStage(htim->Instance,
 8001a62:	687b      	ldr	r3, [r7, #4]
 8001a64:	6818      	ldr	r0, [r3, #0]
 8001a66:	683b      	ldr	r3, [r7, #0]
 8001a68:	6859      	ldr	r1, [r3, #4]
 8001a6a:	683b      	ldr	r3, [r7, #0]
 8001a6c:	68db      	ldr	r3, [r3, #12]
 8001a6e:	461a      	mov	r2, r3
 8001a70:	f000 f89e 	bl	8001bb0 <TIM_TI1_ConfigInputStage>
                               sClockSourceConfig->ClockPolarity,
                               sClockSourceConfig->ClockFilter);
      TIM_ITRx_SetConfig(htim->Instance, TIM_CLOCKSOURCE_TI1ED);
 8001a74:	687b      	ldr	r3, [r7, #4]
 8001a76:	681b      	ldr	r3, [r3, #0]
 8001a78:	2140      	movs	r1, #64	; 0x40
 8001a7a:	4618      	mov	r0, r3
 8001a7c:	f000 f8f5 	bl	8001c6a <TIM_ITRx_SetConfig>
      break;
 8001a80:	e00c      	b.n	8001a9c <HAL_TIM_ConfigClockSource+0x174>
    case TIM_CLOCKSOURCE_ITR3:
    {
      /* Check whether or not the timer instance supports internal trigger input */
      assert_param(IS_TIM_CLOCKSOURCE_ITRX_INSTANCE(htim->Instance));

      TIM_ITRx_SetConfig(htim->Instance, sClockSourceConfig->ClockSource);
 8001a82:	687b      	ldr	r3, [r7, #4]
 8001a84:	681a      	ldr	r2, [r3, #0]
 8001a86:	683b      	ldr	r3, [r7, #0]
 8001a88:	681b      	ldr	r3, [r3, #0]
 8001a8a:	4619      	mov	r1, r3
 8001a8c:	4610      	mov	r0, r2
 8001a8e:	f000 f8ec 	bl	8001c6a <TIM_ITRx_SetConfig>
      break;
 8001a92:	e003      	b.n	8001a9c <HAL_TIM_ConfigClockSource+0x174>
    }

    default:
      status = HAL_ERROR;
 8001a94:	2301      	movs	r3, #1
 8001a96:	73fb      	strb	r3, [r7, #15]
      break;
 8001a98:	e000      	b.n	8001a9c <HAL_TIM_ConfigClockSource+0x174>
      break;
 8001a9a:	bf00      	nop
  }
  htim->State = HAL_TIM_STATE_READY;
 8001a9c:	687b      	ldr	r3, [r7, #4]
 8001a9e:	2201      	movs	r2, #1
 8001aa0:	f883 203d 	strb.w	r2, [r3, #61]	; 0x3d

  __HAL_UNLOCK(htim);
 8001aa4:	687b      	ldr	r3, [r7, #4]
 8001aa6:	2200      	movs	r2, #0
 8001aa8:	f883 203c 	strb.w	r2, [r3, #60]	; 0x3c

  return status;
 8001aac:	7bfb      	ldrb	r3, [r7, #15]
}
 8001aae:	4618      	mov	r0, r3
 8001ab0:	3710      	adds	r7, #16
 8001ab2:	46bd      	mov	sp, r7
 8001ab4:	bd80      	pop	{r7, pc}

08001ab6 <HAL_TIM_OC_DelayElapsedCallback>:
  * @brief  Output Compare callback in non-blocking mode
  * @param  htim TIM OC handle
  * @retval None
  */
__weak void HAL_TIM_OC_DelayElapsedCallback(TIM_HandleTypeDef *htim)
{
 8001ab6:	b480      	push	{r7}
 8001ab8:	b083      	sub	sp, #12
 8001aba:	af00      	add	r7, sp, #0
 8001abc:	6078      	str	r0, [r7, #4]
  UNUSED(htim);

  /* NOTE : This function should not be modified, when the callback is needed,
            the HAL_TIM_OC_DelayElapsedCallback could be implemented in the user file
   */
}
 8001abe:	bf00      	nop
 8001ac0:	370c      	adds	r7, #12
 8001ac2:	46bd      	mov	sp, r7
 8001ac4:	bc80      	pop	{r7}
 8001ac6:	4770      	bx	lr

08001ac8 <HAL_TIM_IC_CaptureCallback>:
  * @brief  Input Capture callback in non-blocking mode
  * @param  htim TIM IC handle
  * @retval None
  */
__weak void HAL_TIM_IC_CaptureCallback(TIM_HandleTypeDef *htim)
{
 8001ac8:	b480      	push	{r7}
 8001aca:	b083      	sub	sp, #12
 8001acc:	af00      	add	r7, sp, #0
 8001ace:	6078      	str	r0, [r7, #4]
  UNUSED(htim);

  /* NOTE : This function should not be modified, when the callback is needed,
            the HAL_TIM_IC_CaptureCallback could be implemented in the user file
   */
}
 8001ad0:	bf00      	nop
 8001ad2:	370c      	adds	r7, #12
 8001ad4:	46bd      	mov	sp, r7
 8001ad6:	bc80      	pop	{r7}
 8001ad8:	4770      	bx	lr

08001ada <HAL_TIM_PWM_PulseFinishedCallback>:
  * @brief  PWM Pulse finished callback in non-blocking mode
  * @param  htim TIM handle
  * @retval None
  */
__weak void HAL_TIM_PWM_PulseFinishedCallback(TIM_HandleTypeDef *htim)
{
 8001ada:	b480      	push	{r7}
 8001adc:	b083      	sub	sp, #12
 8001ade:	af00      	add	r7, sp, #0
 8001ae0:	6078      	str	r0, [r7, #4]
  UNUSED(htim);

  /* NOTE : This function should not be modified, when the callback is needed,
            the HAL_TIM_PWM_PulseFinishedCallback could be implemented in the user file
   */
}
 8001ae2:	bf00      	nop
 8001ae4:	370c      	adds	r7, #12
 8001ae6:	46bd      	mov	sp, r7
 8001ae8:	bc80      	pop	{r7}
 8001aea:	4770      	bx	lr

08001aec <HAL_TIM_TriggerCallback>:
  * @brief  Hall Trigger detection callback in non-blocking mode
  * @param  htim TIM handle
  * @retval None
  */
__weak void HAL_TIM_TriggerCallback(TIM_HandleTypeDef *htim)
{
 8001aec:	b480      	push	{r7}
 8001aee:	b083      	sub	sp, #12
 8001af0:	af00      	add	r7, sp, #0
 8001af2:	6078      	str	r0, [r7, #4]
  UNUSED(htim);

  /* NOTE : This function should not be modified, when the callback is needed,
            the HAL_TIM_TriggerCallback could be implemented in the user file
   */
}
 8001af4:	bf00      	nop
 8001af6:	370c      	adds	r7, #12
 8001af8:	46bd      	mov	sp, r7
 8001afa:	bc80      	pop	{r7}
 8001afc:	4770      	bx	lr
	...

08001b00 <TIM_Base_SetConfig>:
  * @param  TIMx TIM peripheral
  * @param  Structure TIM Base configuration structure
  * @retval None
  */
void TIM_Base_SetConfig(TIM_TypeDef *TIMx, const TIM_Base_InitTypeDef *Structure)
{
 8001b00:	b480      	push	{r7}
 8001b02:	b085      	sub	sp, #20
 8001b04:	af00      	add	r7, sp, #0
 8001b06:	6078      	str	r0, [r7, #4]
 8001b08:	6039      	str	r1, [r7, #0]
  uint32_t tmpcr1;
  tmpcr1 = TIMx->CR1;
 8001b0a:	687b      	ldr	r3, [r7, #4]
 8001b0c:	681b      	ldr	r3, [r3, #0]
 8001b0e:	60fb      	str	r3, [r7, #12]

  /* Set TIM Time Base Unit parameters ---------------------------------------*/
  if (IS_TIM_COUNTER_MODE_SELECT_INSTANCE(TIMx))
 8001b10:	687b      	ldr	r3, [r7, #4]
 8001b12:	4a25      	ldr	r2, [pc, #148]	; (8001ba8 <TIM_Base_SetConfig+0xa8>)
 8001b14:	4293      	cmp	r3, r2
 8001b16:	d007      	beq.n	8001b28 <TIM_Base_SetConfig+0x28>
 8001b18:	687b      	ldr	r3, [r7, #4]
 8001b1a:	f1b3 4f80 	cmp.w	r3, #1073741824	; 0x40000000
 8001b1e:	d003      	beq.n	8001b28 <TIM_Base_SetConfig+0x28>
 8001b20:	687b      	ldr	r3, [r7, #4]
 8001b22:	4a22      	ldr	r2, [pc, #136]	; (8001bac <TIM_Base_SetConfig+0xac>)
 8001b24:	4293      	cmp	r3, r2
 8001b26:	d108      	bne.n	8001b3a <TIM_Base_SetConfig+0x3a>
  {
    /* Select the Counter Mode */
    tmpcr1 &= ~(TIM_CR1_DIR | TIM_CR1_CMS);
 8001b28:	68fb      	ldr	r3, [r7, #12]
 8001b2a:	f023 0370 	bic.w	r3, r3, #112	; 0x70
 8001b2e:	60fb      	str	r3, [r7, #12]
    tmpcr1 |= Structure->CounterMode;
 8001b30:	683b      	ldr	r3, [r7, #0]
 8001b32:	685b      	ldr	r3, [r3, #4]
 8001b34:	68fa      	ldr	r2, [r7, #12]
 8001b36:	4313      	orrs	r3, r2
 8001b38:	60fb      	str	r3, [r7, #12]
  }

  if (IS_TIM_CLOCK_DIVISION_INSTANCE(TIMx))
 8001b3a:	687b      	ldr	r3, [r7, #4]
 8001b3c:	4a1a      	ldr	r2, [pc, #104]	; (8001ba8 <TIM_Base_SetConfig+0xa8>)
 8001b3e:	4293      	cmp	r3, r2
 8001b40:	d007      	beq.n	8001b52 <TIM_Base_SetConfig+0x52>
 8001b42:	687b      	ldr	r3, [r7, #4]
 8001b44:	f1b3 4f80 	cmp.w	r3, #1073741824	; 0x40000000
 8001b48:	d003      	beq.n	8001b52 <TIM_Base_SetConfig+0x52>
 8001b4a:	687b      	ldr	r3, [r7, #4]
 8001b4c:	4a17      	ldr	r2, [pc, #92]	; (8001bac <TIM_Base_SetConfig+0xac>)
 8001b4e:	4293      	cmp	r3, r2
 8001b50:	d108      	bne.n	8001b64 <TIM_Base_SetConfig+0x64>
  {
    /* Set the clock division */
    tmpcr1 &= ~TIM_CR1_CKD;
 8001b52:	68fb      	ldr	r3, [r7, #12]
 8001b54:	f423 7340 	bic.w	r3, r3, #768	; 0x300
 8001b58:	60fb      	str	r3, [r7, #12]
    tmpcr1 |= (uint32_t)Structure->ClockDivision;
 8001b5a:	683b      	ldr	r3, [r7, #0]
 8001b5c:	68db      	ldr	r3, [r3, #12]
 8001b5e:	68fa      	ldr	r2, [r7, #12]
 8001b60:	4313      	orrs	r3, r2
 8001b62:	60fb      	str	r3, [r7, #12]
  }

  /* Set the auto-reload preload */
  MODIFY_REG(tmpcr1, TIM_CR1_ARPE, Structure->AutoReloadPreload);
 8001b64:	68fb      	ldr	r3, [r7, #12]
 8001b66:	f023 0280 	bic.w	r2, r3, #128	; 0x80
 8001b6a:	683b      	ldr	r3, [r7, #0]
 8001b6c:	695b      	ldr	r3, [r3, #20]
 8001b6e:	4313      	orrs	r3, r2
 8001b70:	60fb      	str	r3, [r7, #12]

  TIMx->CR1 = tmpcr1;
 8001b72:	687b      	ldr	r3, [r7, #4]
 8001b74:	68fa      	ldr	r2, [r7, #12]
 8001b76:	601a      	str	r2, [r3, #0]

  /* Set the Autoreload value */
  TIMx->ARR = (uint32_t)Structure->Period ;
 8001b78:	683b      	ldr	r3, [r7, #0]
 8001b7a:	689a      	ldr	r2, [r3, #8]
 8001b7c:	687b      	ldr	r3, [r7, #4]
 8001b7e:	62da      	str	r2, [r3, #44]	; 0x2c

  /* Set the Prescaler value */
  TIMx->PSC = Structure->Prescaler;
 8001b80:	683b      	ldr	r3, [r7, #0]
 8001b82:	681a      	ldr	r2, [r3, #0]
 8001b84:	687b      	ldr	r3, [r7, #4]
 8001b86:	629a      	str	r2, [r3, #40]	; 0x28

  if (IS_TIM_REPETITION_COUNTER_INSTANCE(TIMx))
 8001b88:	687b      	ldr	r3, [r7, #4]
 8001b8a:	4a07      	ldr	r2, [pc, #28]	; (8001ba8 <TIM_Base_SetConfig+0xa8>)
 8001b8c:	4293      	cmp	r3, r2
 8001b8e:	d103      	bne.n	8001b98 <TIM_Base_SetConfig+0x98>
  {
    /* Set the Repetition Counter value */
    TIMx->RCR = Structure->RepetitionCounter;
 8001b90:	683b      	ldr	r3, [r7, #0]
 8001b92:	691a      	ldr	r2, [r3, #16]
 8001b94:	687b      	ldr	r3, [r7, #4]
 8001b96:	631a      	str	r2, [r3, #48]	; 0x30
  }

  /* Generate an update event to reload the Prescaler
     and the repetition counter (only for advanced timer) value immediately */
  TIMx->EGR = TIM_EGR_UG;
 8001b98:	687b      	ldr	r3, [r7, #4]
 8001b9a:	2201      	movs	r2, #1
 8001b9c:	615a      	str	r2, [r3, #20]
}
 8001b9e:	bf00      	nop
 8001ba0:	3714      	adds	r7, #20
 8001ba2:	46bd      	mov	sp, r7
 8001ba4:	bc80      	pop	{r7}
 8001ba6:	4770      	bx	lr
 8001ba8:	40012c00 	.word	0x40012c00
 8001bac:	40000400 	.word	0x40000400

08001bb0 <TIM_TI1_ConfigInputStage>:
  * @param  TIM_ICFilter Specifies the Input Capture Filter.
  *          This parameter must be a value between 0x00 and 0x0F.
  * @retval None
  */
static void TIM_TI1_ConfigInputStage(TIM_TypeDef *TIMx, uint32_t TIM_ICPolarity, uint32_t TIM_ICFilter)
{
 8001bb0:	b480      	push	{r7}
 8001bb2:	b087      	sub	sp, #28
 8001bb4:	af00      	add	r7, sp, #0
 8001bb6:	60f8      	str	r0, [r7, #12]
 8001bb8:	60b9      	str	r1, [r7, #8]
 8001bba:	607a      	str	r2, [r7, #4]
  uint32_t tmpccmr1;
  uint32_t tmpccer;

  /* Disable the Channel 1: Reset the CC1E Bit */
  tmpccer = TIMx->CCER;
 8001bbc:	68fb      	ldr	r3, [r7, #12]
 8001bbe:	6a1b      	ldr	r3, [r3, #32]
 8001bc0:	617b      	str	r3, [r7, #20]
  TIMx->CCER &= ~TIM_CCER_CC1E;
 8001bc2:	68fb      	ldr	r3, [r7, #12]
 8001bc4:	6a1b      	ldr	r3, [r3, #32]
 8001bc6:	f023 0201 	bic.w	r2, r3, #1
 8001bca:	68fb      	ldr	r3, [r7, #12]
 8001bcc:	621a      	str	r2, [r3, #32]
  tmpccmr1 = TIMx->CCMR1;
 8001bce:	68fb      	ldr	r3, [r7, #12]
 8001bd0:	699b      	ldr	r3, [r3, #24]
 8001bd2:	613b      	str	r3, [r7, #16]

  /* Set the filter */
  tmpccmr1 &= ~TIM_CCMR1_IC1F;
 8001bd4:	693b      	ldr	r3, [r7, #16]
 8001bd6:	f023 03f0 	bic.w	r3, r3, #240	; 0xf0
 8001bda:	613b      	str	r3, [r7, #16]
  tmpccmr1 |= (TIM_ICFilter << 4U);
 8001bdc:	687b      	ldr	r3, [r7, #4]
 8001bde:	011b      	lsls	r3, r3, #4
 8001be0:	693a      	ldr	r2, [r7, #16]
 8001be2:	4313      	orrs	r3, r2
 8001be4:	613b      	str	r3, [r7, #16]

  /* Select the Polarity and set the CC1E Bit */
  tmpccer &= ~(TIM_CCER_CC1P | TIM_CCER_CC1NP);
 8001be6:	697b      	ldr	r3, [r7, #20]
 8001be8:	f023 030a 	bic.w	r3, r3, #10
 8001bec:	617b      	str	r3, [r7, #20]
  tmpccer |= TIM_ICPolarity;
 8001bee:	697a      	ldr	r2, [r7, #20]
 8001bf0:	68bb      	ldr	r3, [r7, #8]
 8001bf2:	4313      	orrs	r3, r2
 8001bf4:	617b      	str	r3, [r7, #20]

  /* Write to TIMx CCMR1 and CCER registers */
  TIMx->CCMR1 = tmpccmr1;
 8001bf6:	68fb      	ldr	r3, [r7, #12]
 8001bf8:	693a      	ldr	r2, [r7, #16]
 8001bfa:	619a      	str	r2, [r3, #24]
  TIMx->CCER = tmpccer;
 8001bfc:	68fb      	ldr	r3, [r7, #12]
 8001bfe:	697a      	ldr	r2, [r7, #20]
 8001c00:	621a      	str	r2, [r3, #32]
}
 8001c02:	bf00      	nop
 8001c04:	371c      	adds	r7, #28
 8001c06:	46bd      	mov	sp, r7
 8001c08:	bc80      	pop	{r7}
 8001c0a:	4770      	bx	lr

08001c0c <TIM_TI2_ConfigInputStage>:
  * @param  TIM_ICFilter Specifies the Input Capture Filter.
  *          This parameter must be a value between 0x00 and 0x0F.
  * @retval None
  */
static void TIM_TI2_ConfigInputStage(TIM_TypeDef *TIMx, uint32_t TIM_ICPolarity, uint32_t TIM_ICFilter)
{
 8001c0c:	b480      	push	{r7}
 8001c0e:	b087      	sub	sp, #28
 8001c10:	af00      	add	r7, sp, #0
 8001c12:	60f8      	str	r0, [r7, #12]
 8001c14:	60b9      	str	r1, [r7, #8]
 8001c16:	607a      	str	r2, [r7, #4]
  uint32_t tmpccmr1;
  uint32_t tmpccer;

  /* Disable the Channel 2: Reset the CC2E Bit */
  tmpccer = TIMx->CCER;
 8001c18:	68fb      	ldr	r3, [r7, #12]
 8001c1a:	6a1b      	ldr	r3, [r3, #32]
 8001c1c:	617b      	str	r3, [r7, #20]
  TIMx->CCER &= ~TIM_CCER_CC2E;
 8001c1e:	68fb      	ldr	r3, [r7, #12]
 8001c20:	6a1b      	ldr	r3, [r3, #32]
 8001c22:	f023 0210 	bic.w	r2, r3, #16
 8001c26:	68fb      	ldr	r3, [r7, #12]
 8001c28:	621a      	str	r2, [r3, #32]
  tmpccmr1 = TIMx->CCMR1;
 8001c2a:	68fb      	ldr	r3, [r7, #12]
 8001c2c:	699b      	ldr	r3, [r3, #24]
 8001c2e:	613b      	str	r3, [r7, #16]

  /* Set the filter */
  tmpccmr1 &= ~TIM_CCMR1_IC2F;
 8001c30:	693b      	ldr	r3, [r7, #16]
 8001c32:	f423 4370 	bic.w	r3, r3, #61440	; 0xf000
 8001c36:	613b      	str	r3, [r7, #16]
  tmpccmr1 |= (TIM_ICFilter << 12U);
 8001c38:	687b      	ldr	r3, [r7, #4]
 8001c3a:	031b      	lsls	r3, r3, #12
 8001c3c:	693a      	ldr	r2, [r7, #16]
 8001c3e:	4313      	orrs	r3, r2
 8001c40:	613b      	str	r3, [r7, #16]

  /* Select the Polarity and set the CC2E Bit */
  tmpccer &= ~(TIM_CCER_CC2P | TIM_CCER_CC2NP);
 8001c42:	697b      	ldr	r3, [r7, #20]
 8001c44:	f023 03a0 	bic.w	r3, r3, #160	; 0xa0
 8001c48:	617b      	str	r3, [r7, #20]
  tmpccer |= (TIM_ICPolarity << 4U);
 8001c4a:	68bb      	ldr	r3, [r7, #8]
 8001c4c:	011b      	lsls	r3, r3, #4
 8001c4e:	697a      	ldr	r2, [r7, #20]
 8001c50:	4313      	orrs	r3, r2
 8001c52:	617b      	str	r3, [r7, #20]

  /* Write to TIMx CCMR1 and CCER registers */
  TIMx->CCMR1 = tmpccmr1 ;
 8001c54:	68fb      	ldr	r3, [r7, #12]
 8001c56:	693a      	ldr	r2, [r7, #16]
 8001c58:	619a      	str	r2, [r3, #24]
  TIMx->CCER = tmpccer;
 8001c5a:	68fb      	ldr	r3, [r7, #12]
 8001c5c:	697a      	ldr	r2, [r7, #20]
 8001c5e:	621a      	str	r2, [r3, #32]
}
 8001c60:	bf00      	nop
 8001c62:	371c      	adds	r7, #28
 8001c64:	46bd      	mov	sp, r7
 8001c66:	bc80      	pop	{r7}
 8001c68:	4770      	bx	lr

08001c6a <TIM_ITRx_SetConfig>:
  *            @arg TIM_TS_TI2FP2: Filtered Timer Input 2
  *            @arg TIM_TS_ETRF: External Trigger input
  * @retval None
  */
static void TIM_ITRx_SetConfig(TIM_TypeDef *TIMx, uint32_t InputTriggerSource)
{
 8001c6a:	b480      	push	{r7}
 8001c6c:	b085      	sub	sp, #20
 8001c6e:	af00      	add	r7, sp, #0
 8001c70:	6078      	str	r0, [r7, #4]
 8001c72:	6039      	str	r1, [r7, #0]
  uint32_t tmpsmcr;

  /* Get the TIMx SMCR register value */
  tmpsmcr = TIMx->SMCR;
 8001c74:	687b      	ldr	r3, [r7, #4]
 8001c76:	689b      	ldr	r3, [r3, #8]
 8001c78:	60fb      	str	r3, [r7, #12]
  /* Reset the TS Bits */
  tmpsmcr &= ~TIM_SMCR_TS;
 8001c7a:	68fb      	ldr	r3, [r7, #12]
 8001c7c:	f023 0370 	bic.w	r3, r3, #112	; 0x70
 8001c80:	60fb      	str	r3, [r7, #12]
  /* Set the Input Trigger source and the slave mode*/
  tmpsmcr |= (InputTriggerSource | TIM_SLAVEMODE_EXTERNAL1);
 8001c82:	683a      	ldr	r2, [r7, #0]
 8001c84:	68fb      	ldr	r3, [r7, #12]
 8001c86:	4313      	orrs	r3, r2
 8001c88:	f043 0307 	orr.w	r3, r3, #7
 8001c8c:	60fb      	str	r3, [r7, #12]
  /* Write to TIMx SMCR */
  TIMx->SMCR = tmpsmcr;
 8001c8e:	687b      	ldr	r3, [r7, #4]
 8001c90:	68fa      	ldr	r2, [r7, #12]
 8001c92:	609a      	str	r2, [r3, #8]
}
 8001c94:	bf00      	nop
 8001c96:	3714      	adds	r7, #20
 8001c98:	46bd      	mov	sp, r7
 8001c9a:	bc80      	pop	{r7}
 8001c9c:	4770      	bx	lr

08001c9e <TIM_ETR_SetConfig>:
  *          This parameter must be a value between 0x00 and 0x0F
  * @retval None
  */
void TIM_ETR_SetConfig(TIM_TypeDef *TIMx, uint32_t TIM_ExtTRGPrescaler,
                       uint32_t TIM_ExtTRGPolarity, uint32_t ExtTRGFilter)
{
 8001c9e:	b480      	push	{r7}
 8001ca0:	b087      	sub	sp, #28
 8001ca2:	af00      	add	r7, sp, #0
 8001ca4:	60f8      	str	r0, [r7, #12]
 8001ca6:	60b9      	str	r1, [r7, #8]
 8001ca8:	607a      	str	r2, [r7, #4]
 8001caa:	603b      	str	r3, [r7, #0]
  uint32_t tmpsmcr;

  tmpsmcr = TIMx->SMCR;
 8001cac:	68fb      	ldr	r3, [r7, #12]
 8001cae:	689b      	ldr	r3, [r3, #8]
 8001cb0:	617b      	str	r3, [r7, #20]

  /* Reset the ETR Bits */
  tmpsmcr &= ~(TIM_SMCR_ETF | TIM_SMCR_ETPS | TIM_SMCR_ECE | TIM_SMCR_ETP);
 8001cb2:	697b      	ldr	r3, [r7, #20]
 8001cb4:	f423 437f 	bic.w	r3, r3, #65280	; 0xff00
 8001cb8:	617b      	str	r3, [r7, #20]

  /* Set the Prescaler, the Filter value and the Polarity */
  tmpsmcr |= (uint32_t)(TIM_ExtTRGPrescaler | (TIM_ExtTRGPolarity | (ExtTRGFilter << 8U)));
 8001cba:	683b      	ldr	r3, [r7, #0]
 8001cbc:	021a      	lsls	r2, r3, #8
 8001cbe:	687b      	ldr	r3, [r7, #4]
 8001cc0:	431a      	orrs	r2, r3
 8001cc2:	68bb      	ldr	r3, [r7, #8]
 8001cc4:	4313      	orrs	r3, r2
 8001cc6:	697a      	ldr	r2, [r7, #20]
 8001cc8:	4313      	orrs	r3, r2
 8001cca:	617b      	str	r3, [r7, #20]

  /* Write to TIMx SMCR */
  TIMx->SMCR = tmpsmcr;
 8001ccc:	68fb      	ldr	r3, [r7, #12]
 8001cce:	697a      	ldr	r2, [r7, #20]
 8001cd0:	609a      	str	r2, [r3, #8]
}
 8001cd2:	bf00      	nop
 8001cd4:	371c      	adds	r7, #28
 8001cd6:	46bd      	mov	sp, r7
 8001cd8:	bc80      	pop	{r7}
 8001cda:	4770      	bx	lr

08001cdc <HAL_TIMEx_MasterConfigSynchronization>:
  *         mode.
  * @retval HAL status
  */
HAL_StatusTypeDef HAL_TIMEx_MasterConfigSynchronization(TIM_HandleTypeDef *htim,
                                                        const TIM_MasterConfigTypeDef *sMasterConfig)
{
 8001cdc:	b480      	push	{r7}
 8001cde:	b085      	sub	sp, #20
 8001ce0:	af00      	add	r7, sp, #0
 8001ce2:	6078      	str	r0, [r7, #4]
 8001ce4:	6039      	str	r1, [r7, #0]
  assert_param(IS_TIM_MASTER_INSTANCE(htim->Instance));
  assert_param(IS_TIM_TRGO_SOURCE(sMasterConfig->MasterOutputTrigger));
  assert_param(IS_TIM_MSM_STATE(sMasterConfig->MasterSlaveMode));

  /* Check input state */
  __HAL_LOCK(htim);
 8001ce6:	687b      	ldr	r3, [r7, #4]
 8001ce8:	f893 303c 	ldrb.w	r3, [r3, #60]	; 0x3c
 8001cec:	2b01      	cmp	r3, #1
 8001cee:	d101      	bne.n	8001cf4 <HAL_TIMEx_MasterConfigSynchronization+0x18>
 8001cf0:	2302      	movs	r3, #2
 8001cf2:	e041      	b.n	8001d78 <HAL_TIMEx_MasterConfigSynchronization+0x9c>
 8001cf4:	687b      	ldr	r3, [r7, #4]
 8001cf6:	2201      	movs	r2, #1
 8001cf8:	f883 203c 	strb.w	r2, [r3, #60]	; 0x3c

  /* Change the handler state */
  htim->State = HAL_TIM_STATE_BUSY;
 8001cfc:	687b      	ldr	r3, [r7, #4]
 8001cfe:	2202      	movs	r2, #2
 8001d00:	f883 203d 	strb.w	r2, [r3, #61]	; 0x3d

  /* Get the TIMx CR2 register value */
  tmpcr2 = htim->Instance->CR2;
 8001d04:	687b      	ldr	r3, [r7, #4]
 8001d06:	681b      	ldr	r3, [r3, #0]
 8001d08:	685b      	ldr	r3, [r3, #4]
 8001d0a:	60fb      	str	r3, [r7, #12]

  /* Get the TIMx SMCR register value */
  tmpsmcr = htim->Instance->SMCR;
 8001d0c:	687b      	ldr	r3, [r7, #4]
 8001d0e:	681b      	ldr	r3, [r3, #0]
 8001d10:	689b      	ldr	r3, [r3, #8]
 8001d12:	60bb      	str	r3, [r7, #8]

  /* Reset the MMS Bits */
  tmpcr2 &= ~TIM_CR2_MMS;
 8001d14:	68fb      	ldr	r3, [r7, #12]
 8001d16:	f023 0370 	bic.w	r3, r3, #112	; 0x70
 8001d1a:	60fb      	str	r3, [r7, #12]
  /* Select the TRGO source */
  tmpcr2 |=  sMasterConfig->MasterOutputTrigger;
 8001d1c:	683b      	ldr	r3, [r7, #0]
 8001d1e:	681b      	ldr	r3, [r3, #0]
 8001d20:	68fa      	ldr	r2, [r7, #12]
 8001d22:	4313      	orrs	r3, r2
 8001d24:	60fb      	str	r3, [r7, #12]

  /* Update TIMx CR2 */
  htim->Instance->CR2 = tmpcr2;
 8001d26:	687b      	ldr	r3, [r7, #4]
 8001d28:	681b      	ldr	r3, [r3, #0]
 8001d2a:	68fa      	ldr	r2, [r7, #12]
 8001d2c:	605a      	str	r2, [r3, #4]

  if (IS_TIM_SLAVE_INSTANCE(htim->Instance))
 8001d2e:	687b      	ldr	r3, [r7, #4]
 8001d30:	681b      	ldr	r3, [r3, #0]
 8001d32:	4a14      	ldr	r2, [pc, #80]	; (8001d84 <HAL_TIMEx_MasterConfigSynchronization+0xa8>)
 8001d34:	4293      	cmp	r3, r2
 8001d36:	d009      	beq.n	8001d4c <HAL_TIMEx_MasterConfigSynchronization+0x70>
 8001d38:	687b      	ldr	r3, [r7, #4]
 8001d3a:	681b      	ldr	r3, [r3, #0]
 8001d3c:	f1b3 4f80 	cmp.w	r3, #1073741824	; 0x40000000
 8001d40:	d004      	beq.n	8001d4c <HAL_TIMEx_MasterConfigSynchronization+0x70>
 8001d42:	687b      	ldr	r3, [r7, #4]
 8001d44:	681b      	ldr	r3, [r3, #0]
 8001d46:	4a10      	ldr	r2, [pc, #64]	; (8001d88 <HAL_TIMEx_MasterConfigSynchronization+0xac>)
 8001d48:	4293      	cmp	r3, r2
 8001d4a:	d10c      	bne.n	8001d66 <HAL_TIMEx_MasterConfigSynchronization+0x8a>
  {
    /* Reset the MSM Bit */
    tmpsmcr &= ~TIM_SMCR_MSM;
 8001d4c:	68bb      	ldr	r3, [r7, #8]
 8001d4e:	f023 0380 	bic.w	r3, r3, #128	; 0x80
 8001d52:	60bb      	str	r3, [r7, #8]
    /* Set master mode */
    tmpsmcr |= sMasterConfig->MasterSlaveMode;
 8001d54:	683b      	ldr	r3, [r7, #0]
 8001d56:	685b      	ldr	r3, [r3, #4]
 8001d58:	68ba      	ldr	r2, [r7, #8]
 8001d5a:	4313      	orrs	r3, r2
 8001d5c:	60bb      	str	r3, [r7, #8]

    /* Update TIMx SMCR */
    htim->Instance->SMCR = tmpsmcr;
 8001d5e:	687b      	ldr	r3, [r7, #4]
 8001d60:	681b      	ldr	r3, [r3, #0]
 8001d62:	68ba      	ldr	r2, [r7, #8]
 8001d64:	609a      	str	r2, [r3, #8]
  }

  /* Change the htim state */
  htim->State = HAL_TIM_STATE_READY;
 8001d66:	687b      	ldr	r3, [r7, #4]
 8001d68:	2201      	movs	r2, #1
 8001d6a:	f883 203d 	strb.w	r2, [r3, #61]	; 0x3d

  __HAL_UNLOCK(htim);
 8001d6e:	687b      	ldr	r3, [r7, #4]
 8001d70:	2200      	movs	r2, #0
 8001d72:	f883 203c 	strb.w	r2, [r3, #60]	; 0x3c

  return HAL_OK;
 8001d76:	2300      	movs	r3, #0
}
 8001d78:	4618      	mov	r0, r3
 8001d7a:	3714      	adds	r7, #20
 8001d7c:	46bd      	mov	sp, r7
 8001d7e:	bc80      	pop	{r7}
 8001d80:	4770      	bx	lr
 8001d82:	bf00      	nop
 8001d84:	40012c00 	.word	0x40012c00
 8001d88:	40000400 	.word	0x40000400

08001d8c <HAL_TIMEx_CommutCallback>:
  * @brief  Hall commutation changed callback in non-blocking mode
  * @param  htim TIM handle
  * @retval None
  */
__weak void HAL_TIMEx_CommutCallback(TIM_HandleTypeDef *htim)
{
 8001d8c:	b480      	push	{r7}
 8001d8e:	b083      	sub	sp, #12
 8001d90:	af00      	add	r7, sp, #0
 8001d92:	6078      	str	r0, [r7, #4]
  UNUSED(htim);

  /* NOTE : This function should not be modified, when the callback is needed,
            the HAL_TIMEx_CommutCallback could be implemented in the user file
   */
}
 8001d94:	bf00      	nop
 8001d96:	370c      	adds	r7, #12
 8001d98:	46bd      	mov	sp, r7
 8001d9a:	bc80      	pop	{r7}
 8001d9c:	4770      	bx	lr

08001d9e <HAL_TIMEx_BreakCallback>:
  * @brief  Hall Break detection callback in non-blocking mode
  * @param  htim TIM handle
  * @retval None
  */
__weak void HAL_TIMEx_BreakCallback(TIM_HandleTypeDef *htim)
{
 8001d9e:	b480      	push	{r7}
 8001da0:	b083      	sub	sp, #12
 8001da2:	af00      	add	r7, sp, #0
 8001da4:	6078      	str	r0, [r7, #4]
  UNUSED(htim);

  /* NOTE : This function should not be modified, when the callback is needed,
            the HAL_TIMEx_BreakCallback could be implemented in the user file
   */
}
 8001da6:	bf00      	nop
 8001da8:	370c      	adds	r7, #12
 8001daa:	46bd      	mov	sp, r7
 8001dac:	bc80      	pop	{r7}
 8001dae:	4770      	bx	lr

08001db0 <__libc_init_array>:
 8001db0:	b570      	push	{r4, r5, r6, lr}
 8001db2:	2600      	movs	r6, #0
 8001db4:	4d0c      	ldr	r5, [pc, #48]	; (8001de8 <__libc_init_array+0x38>)
 8001db6:	4c0d      	ldr	r4, [pc, #52]	; (8001dec <__libc_init_array+0x3c>)
 8001db8:	1b64      	subs	r4, r4, r5
 8001dba:	10a4      	asrs	r4, r4, #2
 8001dbc:	42a6      	cmp	r6, r4
 8001dbe:	d109      	bne.n	8001dd4 <__libc_init_array+0x24>
 8001dc0:	f000 f822 	bl	8001e08 <_init>
 8001dc4:	2600      	movs	r6, #0
 8001dc6:	4d0a      	ldr	r5, [pc, #40]	; (8001df0 <__libc_init_array+0x40>)
 8001dc8:	4c0a      	ldr	r4, [pc, #40]	; (8001df4 <__libc_init_array+0x44>)
 8001dca:	1b64      	subs	r4, r4, r5
 8001dcc:	10a4      	asrs	r4, r4, #2
 8001dce:	42a6      	cmp	r6, r4
 8001dd0:	d105      	bne.n	8001dde <__libc_init_array+0x2e>
 8001dd2:	bd70      	pop	{r4, r5, r6, pc}
 8001dd4:	f855 3b04 	ldr.w	r3, [r5], #4
 8001dd8:	4798      	blx	r3
 8001dda:	3601      	adds	r6, #1
 8001ddc:	e7ee      	b.n	8001dbc <__libc_init_array+0xc>
 8001dde:	f855 3b04 	ldr.w	r3, [r5], #4
 8001de2:	4798      	blx	r3
 8001de4:	3601      	adds	r6, #1
 8001de6:	e7f2      	b.n	8001dce <__libc_init_array+0x1e>
 8001de8:	08001e44 	.word	0x08001e44
 8001dec:	08001e44 	.word	0x08001e44
 8001df0:	08001e44 	.word	0x08001e44
 8001df4:	08001e48 	.word	0x08001e48

08001df8 <memset>:
 8001df8:	4603      	mov	r3, r0
 8001dfa:	4402      	add	r2, r0
 8001dfc:	4293      	cmp	r3, r2
 8001dfe:	d100      	bne.n	8001e02 <memset+0xa>
 8001e00:	4770      	bx	lr
 8001e02:	f803 1b01 	strb.w	r1, [r3], #1
 8001e06:	e7f9      	b.n	8001dfc <memset+0x4>

08001e08 <_init>:
 8001e08:	b5f8      	push	{r3, r4, r5, r6, r7, lr}
 8001e0a:	bf00      	nop
 8001e0c:	bcf8      	pop	{r3, r4, r5, r6, r7}
 8001e0e:	bc08      	pop	{r3}
 8001e10:	469e      	mov	lr, r3
 8001e12:	4770      	bx	lr

08001e14 <_fini>:
 8001e14:	b5f8      	push	{r3, r4, r5, r6, r7, lr}
 8001e16:	bf00      	nop
 8001e18:	bcf8      	pop	{r3, r4, r5, r6, r7}
 8001e1a:	bc08      	pop	{r3}
 8001e1c:	469e      	mov	lr, r3
 8001e1e:	4770      	bx	lr
