
STM32ProjectForLab4.elf:     file format elf32-littlearm

Sections:
Idx Name          Size      VMA       LMA       File off  Algn
  0 .isr_vector   0000010c  08000000  08000000  00010000  2**0
                  CONTENTS, ALLOC, LOAD, READONLY, DATA
  1 .text         00001940  0800010c  0800010c  0001010c  2**2
                  CONTENTS, ALLOC, LOAD, READONLY, CODE
  2 .rodata       00000024  08001a4c  08001a4c  00011a4c  2**2
                  CONTENTS, ALLOC, LOAD, READONLY, DATA
  3 .ARM.extab    00000000  08001a70  08001a70  0002000c  2**0
                  CONTENTS
  4 .ARM          00000000  08001a70  08001a70  0002000c  2**0
                  CONTENTS
  5 .preinit_array 00000000  08001a70  08001a70  0002000c  2**0
                  CONTENTS, ALLOC, LOAD, DATA
  6 .init_array   00000004  08001a70  08001a70  00011a70  2**2
                  CONTENTS, ALLOC, LOAD, DATA
  7 .fini_array   00000004  08001a74  08001a74  00011a74  2**2
                  CONTENTS, ALLOC, LOAD, DATA
  8 .data         0000000c  20000000  08001a78  00020000  2**2
                  CONTENTS, ALLOC, LOAD, DATA
  9 .bss          00000068  2000000c  08001a84  0002000c  2**2
                  ALLOC
 10 ._user_heap_stack 00000604  20000074  08001a84  00020074  2**0
                  ALLOC
 11 .ARM.attributes 00000029  00000000  00000000  0002000c  2**0
                  CONTENTS, READONLY
 12 .debug_info   00007fd5  00000000  00000000  00020035  2**0
                  CONTENTS, READONLY, DEBUGGING, OCTETS
 13 .debug_abbrev 000014de  00000000  00000000  0002800a  2**0
                  CONTENTS, READONLY, DEBUGGING, OCTETS
 14 .debug_aranges 00000930  00000000  00000000  000294e8  2**3
                  CONTENTS, READONLY, DEBUGGING, OCTETS
 15 .debug_ranges 00000888  00000000  00000000  00029e18  2**3
                  CONTENTS, READONLY, DEBUGGING, OCTETS
 16 .debug_macro  000161c7  00000000  00000000  0002a6a0  2**0
                  CONTENTS, READONLY, DEBUGGING, OCTETS
 17 .debug_line   0000929a  00000000  00000000  00040867  2**0
                  CONTENTS, READONLY, DEBUGGING, OCTETS
 18 .debug_str    00081c49  00000000  00000000  00049b01  2**0
                  CONTENTS, READONLY, DEBUGGING, OCTETS
 19 .comment      00000050  00000000  00000000  000cb74a  2**0
                  CONTENTS, READONLY
 20 .debug_frame  000025cc  00000000  00000000  000cb79c  2**2
                  CONTENTS, READONLY, DEBUGGING, OCTETS

Disassembly of section .text:

0800010c <__do_global_dtors_aux>:
 800010c:	b510      	push	{r4, lr}
 800010e:	4c05      	ldr	r4, [pc, #20]	; (8000124 <__do_global_dtors_aux+0x18>)
 8000110:	7823      	ldrb	r3, [r4, #0]
 8000112:	b933      	cbnz	r3, 8000122 <__do_global_dtors_aux+0x16>
 8000114:	4b04      	ldr	r3, [pc, #16]	; (8000128 <__do_global_dtors_aux+0x1c>)
 8000116:	b113      	cbz	r3, 800011e <__do_global_dtors_aux+0x12>
 8000118:	4804      	ldr	r0, [pc, #16]	; (800012c <__do_global_dtors_aux+0x20>)
 800011a:	f3af 8000 	nop.w
 800011e:	2301      	movs	r3, #1
 8000120:	7023      	strb	r3, [r4, #0]
 8000122:	bd10      	pop	{r4, pc}
 8000124:	2000000c 	.word	0x2000000c
 8000128:	00000000 	.word	0x00000000
 800012c:	08001a34 	.word	0x08001a34

08000130 <frame_dummy>:
 8000130:	b508      	push	{r3, lr}
 8000132:	4b03      	ldr	r3, [pc, #12]	; (8000140 <frame_dummy+0x10>)
 8000134:	b11b      	cbz	r3, 800013e <frame_dummy+0xe>
 8000136:	4903      	ldr	r1, [pc, #12]	; (8000144 <frame_dummy+0x14>)
 8000138:	4803      	ldr	r0, [pc, #12]	; (8000148 <frame_dummy+0x18>)
 800013a:	f3af 8000 	nop.w
 800013e:	bd08      	pop	{r3, pc}
 8000140:	00000000 	.word	0x00000000
 8000144:	20000010 	.word	0x20000010
 8000148:	08001a34 	.word	0x08001a34

0800014c <main>:
/**
  * @brief  The application entry point.
  * @retval int
  */
int main(void)
{
 800014c:	b580      	push	{r7, lr}
 800014e:	af00      	add	r7, sp, #0
  /* USER CODE END 1 */

  /* MCU Configuration--------------------------------------------------------*/

  /* Reset of all peripherals, Initializes the Flash interface and the Systick. */
  HAL_Init();
 8000150:	f000 f97a 	bl	8000448 <HAL_Init>
  /* USER CODE BEGIN Init */

  /* USER CODE END Init */

  /* Configure the system clock */
  SystemClock_Config();
 8000154:	f000 f80a 	bl	800016c <SystemClock_Config>
  /* USER CODE BEGIN SysInit */

  /* USER CODE END SysInit */

  /* Initialize all configured peripherals */
  MX_GPIO_Init();
 8000158:	f000 f892 	bl	8000280 <MX_GPIO_Init>
  MX_TIM2_Init();
 800015c:	f000 f842 	bl	80001e4 <MX_TIM2_Init>
  /* USER CODE BEGIN 2 */
  HAL_TIM_Base_Start_IT(& htim2); /*Function to initialize the timer*/
 8000160:	4801      	ldr	r0, [pc, #4]	; (8000168 <main+0x1c>)
 8000162:	f001 f8a3 	bl	80012ac <HAL_TIM_Base_Start_IT>
  /* USER CODE END 2 */

  /* Infinite loop */
  /* USER CODE BEGIN WHILE */
  while (1)
 8000166:	e7fe      	b.n	8000166 <main+0x1a>
 8000168:	20000028 	.word	0x20000028

0800016c <SystemClock_Config>:
/**
  * @brief System Clock Configuration
  * @retval None
  */
void SystemClock_Config(void)
{
 800016c:	b580      	push	{r7, lr}
 800016e:	b090      	sub	sp, #64	; 0x40
 8000170:	af00      	add	r7, sp, #0
  RCC_OscInitTypeDef RCC_OscInitStruct = {0};
 8000172:	f107 0318 	add.w	r3, r7, #24
 8000176:	2228      	movs	r2, #40	; 0x28
 8000178:	2100      	movs	r1, #0
 800017a:	4618      	mov	r0, r3
 800017c:	f001 fc52 	bl	8001a24 <memset>
  RCC_ClkInitTypeDef RCC_ClkInitStruct = {0};
 8000180:	1d3b      	adds	r3, r7, #4
 8000182:	2200      	movs	r2, #0
 8000184:	601a      	str	r2, [r3, #0]
 8000186:	605a      	str	r2, [r3, #4]
 8000188:	609a      	str	r2, [r3, #8]
 800018a:	60da      	str	r2, [r3, #12]
 800018c:	611a      	str	r2, [r3, #16]

  /** Initializes the RCC Oscillators according to the specified parameters
  * in the RCC_OscInitTypeDef structure.
  */
  RCC_OscInitStruct.OscillatorType = RCC_OSCILLATORTYPE_HSI;
 800018e:	2302      	movs	r3, #2
 8000190:	61bb      	str	r3, [r7, #24]
  RCC_OscInitStruct.HSIState = RCC_HSI_ON;
 8000192:	2301      	movs	r3, #1
 8000194:	62bb      	str	r3, [r7, #40]	; 0x28
  RCC_OscInitStruct.HSICalibrationValue = RCC_HSICALIBRATION_DEFAULT;
 8000196:	2310      	movs	r3, #16
 8000198:	62fb      	str	r3, [r7, #44]	; 0x2c
  RCC_OscInitStruct.PLL.PLLState = RCC_PLL_NONE;
 800019a:	2300      	movs	r3, #0
 800019c:	637b      	str	r3, [r7, #52]	; 0x34
  if (HAL_RCC_OscConfig(&RCC_OscInitStruct) != HAL_OK)
 800019e:	f107 0318 	add.w	r3, r7, #24
 80001a2:	4618      	mov	r0, r3
 80001a4:	f000 fc54 	bl	8000a50 <HAL_RCC_OscConfig>
 80001a8:	4603      	mov	r3, r0
 80001aa:	2b00      	cmp	r3, #0
 80001ac:	d001      	beq.n	80001b2 <SystemClock_Config+0x46>
  {
    Error_Handler();
 80001ae:	f000 f8a2 	bl	80002f6 <Error_Handler>
  }

  /** Initializes the CPU, AHB and APB buses clocks
  */
  RCC_ClkInitStruct.ClockType = RCC_CLOCKTYPE_HCLK|RCC_CLOCKTYPE_SYSCLK
 80001b2:	230f      	movs	r3, #15
 80001b4:	607b      	str	r3, [r7, #4]
                              |RCC_CLOCKTYPE_PCLK1|RCC_CLOCKTYPE_PCLK2;
  RCC_ClkInitStruct.SYSCLKSource = RCC_SYSCLKSOURCE_HSI;
 80001b6:	2300      	movs	r3, #0
 80001b8:	60bb      	str	r3, [r7, #8]
  RCC_ClkInitStruct.AHBCLKDivider = RCC_SYSCLK_DIV1;
 80001ba:	2300      	movs	r3, #0
 80001bc:	60fb      	str	r3, [r7, #12]
  RCC_ClkInitStruct.APB1CLKDivider = RCC_HCLK_DIV1;
 80001be:	2300      	movs	r3, #0
 80001c0:	613b      	str	r3, [r7, #16]
  RCC_ClkInitStruct.APB2CLKDivider = RCC_HCLK_DIV1;
 80001c2:	2300      	movs	r3, #0
 80001c4:	617b      	str	r3, [r7, #20]

  if (HAL_RCC_ClockConfig(&RCC_ClkInitStruct, FLASH_LATENCY_0) != HAL_OK)
 80001c6:	1d3b      	adds	r3, r7, #4
 80001c8:	2100      	movs	r1, #0
 80001ca:	4618      	mov	r0, r3
 80001cc:	f000 fec2 	bl	8000f54 <HAL_RCC_ClockConfig>
 80001d0:	4603      	mov	r3, r0
 80001d2:	2b00      	cmp	r3, #0
 80001d4:	d001      	beq.n	80001da <SystemClock_Config+0x6e>
  {
    Error_Handler();
 80001d6:	f000 f88e 	bl	80002f6 <Error_Handler>
  }
}
 80001da:	bf00      	nop
 80001dc:	3740      	adds	r7, #64	; 0x40
 80001de:	46bd      	mov	sp, r7
 80001e0:	bd80      	pop	{r7, pc}
	...

080001e4 <MX_TIM2_Init>:
  * @brief TIM2 Initialization Function
  * @param None
  * @retval None
  */
static void MX_TIM2_Init(void)
{
 80001e4:	b580      	push	{r7, lr}
 80001e6:	b086      	sub	sp, #24
 80001e8:	af00      	add	r7, sp, #0

  /* USER CODE BEGIN TIM2_Init 0 */

  /* USER CODE END TIM2_Init 0 */

  TIM_ClockConfigTypeDef sClockSourceConfig = {0};
 80001ea:	f107 0308 	add.w	r3, r7, #8
 80001ee:	2200      	movs	r2, #0
 80001f0:	601a      	str	r2, [r3, #0]
 80001f2:	605a      	str	r2, [r3, #4]
 80001f4:	609a      	str	r2, [r3, #8]
 80001f6:	60da      	str	r2, [r3, #12]
  TIM_MasterConfigTypeDef sMasterConfig = {0};
 80001f8:	463b      	mov	r3, r7
 80001fa:	2200      	movs	r2, #0
 80001fc:	601a      	str	r2, [r3, #0]
 80001fe:	605a      	str	r2, [r3, #4]

  /* USER CODE BEGIN TIM2_Init 1 */

  /* USER CODE END TIM2_Init 1 */
  htim2.Instance = TIM2;
 8000200:	4b1e      	ldr	r3, [pc, #120]	; (800027c <MX_TIM2_Init+0x98>)
 8000202:	f04f 4280 	mov.w	r2, #1073741824	; 0x40000000
 8000206:	601a      	str	r2, [r3, #0]
  htim2.Init.Prescaler = 7999;
 8000208:	4b1c      	ldr	r3, [pc, #112]	; (800027c <MX_TIM2_Init+0x98>)
 800020a:	f641 723f 	movw	r2, #7999	; 0x1f3f
 800020e:	605a      	str	r2, [r3, #4]
  htim2.Init.CounterMode = TIM_COUNTERMODE_UP;
 8000210:	4b1a      	ldr	r3, [pc, #104]	; (800027c <MX_TIM2_Init+0x98>)
 8000212:	2200      	movs	r2, #0
 8000214:	609a      	str	r2, [r3, #8]
  htim2.Init.Period = 65535;
 8000216:	4b19      	ldr	r3, [pc, #100]	; (800027c <MX_TIM2_Init+0x98>)
 8000218:	f64f 72ff 	movw	r2, #65535	; 0xffff
 800021c:	60da      	str	r2, [r3, #12]
  htim2.Init.ClockDivision = TIM_CLOCKDIVISION_DIV1;
 800021e:	4b17      	ldr	r3, [pc, #92]	; (800027c <MX_TIM2_Init+0x98>)
 8000220:	2200      	movs	r2, #0
 8000222:	611a      	str	r2, [r3, #16]
  htim2.Init.AutoReloadPreload = TIM_AUTORELOAD_PRELOAD_DISABLE;
 8000224:	4b15      	ldr	r3, [pc, #84]	; (800027c <MX_TIM2_Init+0x98>)
 8000226:	2200      	movs	r2, #0
 8000228:	619a      	str	r2, [r3, #24]
  if (HAL_TIM_Base_Init(&htim2) != HAL_OK)
 800022a:	4814      	ldr	r0, [pc, #80]	; (800027c <MX_TIM2_Init+0x98>)
 800022c:	f000 ffee 	bl	800120c <HAL_TIM_Base_Init>
 8000230:	4603      	mov	r3, r0
 8000232:	2b00      	cmp	r3, #0
 8000234:	d001      	beq.n	800023a <MX_TIM2_Init+0x56>
  {
    Error_Handler();
 8000236:	f000 f85e 	bl	80002f6 <Error_Handler>
  }
  sClockSourceConfig.ClockSource = TIM_CLOCKSOURCE_INTERNAL;
 800023a:	f44f 5380 	mov.w	r3, #4096	; 0x1000
 800023e:	60bb      	str	r3, [r7, #8]
  if (HAL_TIM_ConfigClockSource(&htim2, &sClockSourceConfig) != HAL_OK)
 8000240:	f107 0308 	add.w	r3, r7, #8
 8000244:	4619      	mov	r1, r3
 8000246:	480d      	ldr	r0, [pc, #52]	; (800027c <MX_TIM2_Init+0x98>)
 8000248:	f001 f984 	bl	8001554 <HAL_TIM_ConfigClockSource>
 800024c:	4603      	mov	r3, r0
 800024e:	2b00      	cmp	r3, #0
 8000250:	d001      	beq.n	8000256 <MX_TIM2_Init+0x72>
  {
    Error_Handler();
 8000252:	f000 f850 	bl	80002f6 <Error_Handler>
  }
  sMasterConfig.MasterOutputTrigger = TIM_TRGO_RESET;
 8000256:	2300      	movs	r3, #0
 8000258:	603b      	str	r3, [r7, #0]
  sMasterConfig.MasterSlaveMode = TIM_MASTERSLAVEMODE_DISABLE;
 800025a:	2300      	movs	r3, #0
 800025c:	607b      	str	r3, [r7, #4]
  if (HAL_TIMEx_MasterConfigSynchronization(&htim2, &sMasterConfig) != HAL_OK)
 800025e:	463b      	mov	r3, r7
 8000260:	4619      	mov	r1, r3
 8000262:	4806      	ldr	r0, [pc, #24]	; (800027c <MX_TIM2_Init+0x98>)
 8000264:	f001 fb50 	bl	8001908 <HAL_TIMEx_MasterConfigSynchronization>
 8000268:	4603      	mov	r3, r0
 800026a:	2b00      	cmp	r3, #0
 800026c:	d001      	beq.n	8000272 <MX_TIM2_Init+0x8e>
  {
    Error_Handler();
 800026e:	f000 f842 	bl	80002f6 <Error_Handler>
  }
  /* USER CODE BEGIN TIM2_Init 2 */

  /* USER CODE END TIM2_Init 2 */

}
 8000272:	bf00      	nop
 8000274:	3718      	adds	r7, #24
 8000276:	46bd      	mov	sp, r7
 8000278:	bd80      	pop	{r7, pc}
 800027a:	bf00      	nop
 800027c:	20000028 	.word	0x20000028

08000280 <MX_GPIO_Init>:
  * @brief GPIO Initialization Function
  * @param None
  * @retval None
  */
static void MX_GPIO_Init(void)
{
 8000280:	b580      	push	{r7, lr}
 8000282:	b086      	sub	sp, #24
 8000284:	af00      	add	r7, sp, #0
  GPIO_InitTypeDef GPIO_InitStruct = {0};
 8000286:	f107 0308 	add.w	r3, r7, #8
 800028a:	2200      	movs	r2, #0
 800028c:	601a      	str	r2, [r3, #0]
 800028e:	605a      	str	r2, [r3, #4]
 8000290:	609a      	str	r2, [r3, #8]
 8000292:	60da      	str	r2, [r3, #12]
/* USER CODE BEGIN MX_GPIO_Init_1 */
/* USER CODE END MX_GPIO_Init_1 */

  /* GPIO Ports Clock Enable */
  __HAL_RCC_GPIOA_CLK_ENABLE();
 8000294:	4b11      	ldr	r3, [pc, #68]	; (80002dc <MX_GPIO_Init+0x5c>)
 8000296:	699b      	ldr	r3, [r3, #24]
 8000298:	4a10      	ldr	r2, [pc, #64]	; (80002dc <MX_GPIO_Init+0x5c>)
 800029a:	f043 0304 	orr.w	r3, r3, #4
 800029e:	6193      	str	r3, [r2, #24]
 80002a0:	4b0e      	ldr	r3, [pc, #56]	; (80002dc <MX_GPIO_Init+0x5c>)
 80002a2:	699b      	ldr	r3, [r3, #24]
 80002a4:	f003 0304 	and.w	r3, r3, #4
 80002a8:	607b      	str	r3, [r7, #4]
 80002aa:	687b      	ldr	r3, [r7, #4]

  /*Configure GPIO pin Output Level */
  HAL_GPIO_WritePin(LED_RED_GPIO_Port, LED_RED_Pin, GPIO_PIN_RESET);
 80002ac:	2200      	movs	r2, #0
 80002ae:	2120      	movs	r1, #32
 80002b0:	480b      	ldr	r0, [pc, #44]	; (80002e0 <MX_GPIO_Init+0x60>)
 80002b2:	f000 fbb5 	bl	8000a20 <HAL_GPIO_WritePin>

  /*Configure GPIO pin : LED_RED_Pin */
  GPIO_InitStruct.Pin = LED_RED_Pin;
 80002b6:	2320      	movs	r3, #32
 80002b8:	60bb      	str	r3, [r7, #8]
  GPIO_InitStruct.Mode = GPIO_MODE_OUTPUT_PP;
 80002ba:	2301      	movs	r3, #1
 80002bc:	60fb      	str	r3, [r7, #12]
  GPIO_InitStruct.Pull = GPIO_NOPULL;
 80002be:	2300      	movs	r3, #0
 80002c0:	613b      	str	r3, [r7, #16]
  GPIO_InitStruct.Speed = GPIO_SPEED_FREQ_LOW;
 80002c2:	2302      	movs	r3, #2
 80002c4:	617b      	str	r3, [r7, #20]
  HAL_GPIO_Init(LED_RED_GPIO_Port, &GPIO_InitStruct);
 80002c6:	f107 0308 	add.w	r3, r7, #8
 80002ca:	4619      	mov	r1, r3
 80002cc:	4804      	ldr	r0, [pc, #16]	; (80002e0 <MX_GPIO_Init+0x60>)
 80002ce:	f000 fa2b 	bl	8000728 <HAL_GPIO_Init>

/* USER CODE BEGIN MX_GPIO_Init_2 */
/* USER CODE END MX_GPIO_Init_2 */
}
 80002d2:	bf00      	nop
 80002d4:	3718      	adds	r7, #24
 80002d6:	46bd      	mov	sp, r7
 80002d8:	bd80      	pop	{r7, pc}
 80002da:	bf00      	nop
 80002dc:	40021000 	.word	0x40021000
 80002e0:	40010800 	.word	0x40010800

080002e4 <HAL_TIM_PeriodElapsedCallback>:

/* USER CODE BEGIN 4 */
void HAL_TIM_PeriodElapsedCallback(TIM_HandleTypeDef *htim)
{
 80002e4:	b480      	push	{r7}
 80002e6:	b083      	sub	sp, #12
 80002e8:	af00      	add	r7, sp, #0
 80002ea:	6078      	str	r0, [r7, #4]

}
 80002ec:	bf00      	nop
 80002ee:	370c      	adds	r7, #12
 80002f0:	46bd      	mov	sp, r7
 80002f2:	bc80      	pop	{r7}
 80002f4:	4770      	bx	lr

080002f6 <Error_Handler>:
/**
  * @brief  This function is executed in case of error occurrence.
  * @retval None
  */
void Error_Handler(void)
{
 80002f6:	b480      	push	{r7}
 80002f8:	af00      	add	r7, sp, #0
  \details Disables IRQ interrupts by setting the I-bit in the CPSR.
           Can only be executed in Privileged modes.
 */
__STATIC_FORCEINLINE void __disable_irq(void)
{
  __ASM volatile ("cpsid i" : : : "memory");
 80002fa:	b672      	cpsid	i
}
 80002fc:	bf00      	nop
  /* USER CODE BEGIN Error_Handler_Debug */
  /* User can add his own implementation to report the HAL error return state */
  __disable_irq();
  while (1)
 80002fe:	e7fe      	b.n	80002fe <Error_Handler+0x8>

08000300 <HAL_MspInit>:
/* USER CODE END 0 */
/**
  * Initializes the Global MSP.
  */
void HAL_MspInit(void)
{
 8000300:	b480      	push	{r7}
 8000302:	b083      	sub	sp, #12
 8000304:	af00      	add	r7, sp, #0
  /* USER CODE BEGIN MspInit 0 */

  /* USER CODE END MspInit 0 */

  __HAL_RCC_AFIO_CLK_ENABLE();
 8000306:	4b0e      	ldr	r3, [pc, #56]	; (8000340 <HAL_MspInit+0x40>)
 8000308:	699b      	ldr	r3, [r3, #24]
 800030a:	4a0d      	ldr	r2, [pc, #52]	; (8000340 <HAL_MspInit+0x40>)
 800030c:	f043 0301 	orr.w	r3, r3, #1
 8000310:	6193      	str	r3, [r2, #24]
 8000312:	4b0b      	ldr	r3, [pc, #44]	; (8000340 <HAL_MspInit+0x40>)
 8000314:	699b      	ldr	r3, [r3, #24]
 8000316:	f003 0301 	and.w	r3, r3, #1
 800031a:	607b      	str	r3, [r7, #4]
 800031c:	687b      	ldr	r3, [r7, #4]
  __HAL_RCC_PWR_CLK_ENABLE();
 800031e:	4b08      	ldr	r3, [pc, #32]	; (8000340 <HAL_MspInit+0x40>)
 8000320:	69db      	ldr	r3, [r3, #28]
 8000322:	4a07      	ldr	r2, [pc, #28]	; (8000340 <HAL_MspInit+0x40>)
 8000324:	f043 5380 	orr.w	r3, r3, #268435456	; 0x10000000
 8000328:	61d3      	str	r3, [r2, #28]
 800032a:	4b05      	ldr	r3, [pc, #20]	; (8000340 <HAL_MspInit+0x40>)
 800032c:	69db      	ldr	r3, [r3, #28]
 800032e:	f003 5380 	and.w	r3, r3, #268435456	; 0x10000000
 8000332:	603b      	str	r3, [r7, #0]
 8000334:	683b      	ldr	r3, [r7, #0]
  /* System interrupt init*/

  /* USER CODE BEGIN MspInit 1 */

  /* USER CODE END MspInit 1 */
}
 8000336:	bf00      	nop
 8000338:	370c      	adds	r7, #12
 800033a:	46bd      	mov	sp, r7
 800033c:	bc80      	pop	{r7}
 800033e:	4770      	bx	lr
 8000340:	40021000 	.word	0x40021000

08000344 <HAL_TIM_Base_MspInit>:
* This function configures the hardware resources used in this example
* @param htim_base: TIM_Base handle pointer
* @retval None
*/
void HAL_TIM_Base_MspInit(TIM_HandleTypeDef* htim_base)
{
 8000344:	b580      	push	{r7, lr}
 8000346:	b084      	sub	sp, #16
 8000348:	af00      	add	r7, sp, #0
 800034a:	6078      	str	r0, [r7, #4]
  if(htim_base->Instance==TIM2)
 800034c:	687b      	ldr	r3, [r7, #4]
 800034e:	681b      	ldr	r3, [r3, #0]
 8000350:	f1b3 4f80 	cmp.w	r3, #1073741824	; 0x40000000
 8000354:	d113      	bne.n	800037e <HAL_TIM_Base_MspInit+0x3a>
  {
  /* USER CODE BEGIN TIM2_MspInit 0 */

  /* USER CODE END TIM2_MspInit 0 */
    /* Peripheral clock enable */
    __HAL_RCC_TIM2_CLK_ENABLE();
 8000356:	4b0c      	ldr	r3, [pc, #48]	; (8000388 <HAL_TIM_Base_MspInit+0x44>)
 8000358:	69db      	ldr	r3, [r3, #28]
 800035a:	4a0b      	ldr	r2, [pc, #44]	; (8000388 <HAL_TIM_Base_MspInit+0x44>)
 800035c:	f043 0301 	orr.w	r3, r3, #1
 8000360:	61d3      	str	r3, [r2, #28]
 8000362:	4b09      	ldr	r3, [pc, #36]	; (8000388 <HAL_TIM_Base_MspInit+0x44>)
 8000364:	69db      	ldr	r3, [r3, #28]
 8000366:	f003 0301 	and.w	r3, r3, #1
 800036a:	60fb      	str	r3, [r7, #12]
 800036c:	68fb      	ldr	r3, [r7, #12]
    /* TIM2 interrupt Init */
    HAL_NVIC_SetPriority(TIM2_IRQn, 0, 0);
 800036e:	2200      	movs	r2, #0
 8000370:	2100      	movs	r1, #0
 8000372:	201c      	movs	r0, #28
 8000374:	f000 f9a1 	bl	80006ba <HAL_NVIC_SetPriority>
    HAL_NVIC_EnableIRQ(TIM2_IRQn);
 8000378:	201c      	movs	r0, #28
 800037a:	f000 f9ba 	bl	80006f2 <HAL_NVIC_EnableIRQ>
  /* USER CODE BEGIN TIM2_MspInit 1 */

  /* USER CODE END TIM2_MspInit 1 */
  }

}
 800037e:	bf00      	nop
 8000380:	3710      	adds	r7, #16
 8000382:	46bd      	mov	sp, r7
 8000384:	bd80      	pop	{r7, pc}
 8000386:	bf00      	nop
 8000388:	40021000 	.word	0x40021000

0800038c <NMI_Handler>:
/******************************************************************************/
/**
  * @brief This function handles Non maskable interrupt.
  */
void NMI_Handler(void)
{
 800038c:	b480      	push	{r7}
 800038e:	af00      	add	r7, sp, #0
  /* USER CODE BEGIN NonMaskableInt_IRQn 0 */

  /* USER CODE END NonMaskableInt_IRQn 0 */
  /* USER CODE BEGIN NonMaskableInt_IRQn 1 */
  while (1)
 8000390:	e7fe      	b.n	8000390 <NMI_Handler+0x4>

08000392 <HardFault_Handler>:

/**
  * @brief This function handles Hard fault interrupt.
  */
void HardFault_Handler(void)
{
 8000392:	b480      	push	{r7}
 8000394:	af00      	add	r7, sp, #0
  /* USER CODE BEGIN HardFault_IRQn 0 */

  /* USER CODE END HardFault_IRQn 0 */
  while (1)
 8000396:	e7fe      	b.n	8000396 <HardFault_Handler+0x4>

08000398 <MemManage_Handler>:

/**
  * @brief This function handles Memory management fault.
  */
void MemManage_Handler(void)
{
 8000398:	b480      	push	{r7}
 800039a:	af00      	add	r7, sp, #0
  /* USER CODE BEGIN MemoryManagement_IRQn 0 */

  /* USER CODE END MemoryManagement_IRQn 0 */
  while (1)
 800039c:	e7fe      	b.n	800039c <MemManage_Handler+0x4>

0800039e <BusFault_Handler>:

/**
  * @brief This function handles Prefetch fault, memory access fault.
  */
void BusFault_Handler(void)
{
 800039e:	b480      	push	{r7}
 80003a0:	af00      	add	r7, sp, #0
  /* USER CODE BEGIN BusFault_IRQn 0 */

  /* USER CODE END BusFault_IRQn 0 */
  while (1)
 80003a2:	e7fe      	b.n	80003a2 <BusFault_Handler+0x4>

080003a4 <UsageFault_Handler>:

/**
  * @brief This function handles Undefined instruction or illegal state.
  */
void UsageFault_Handler(void)
{
 80003a4:	b480      	push	{r7}
 80003a6:	af00      	add	r7, sp, #0
  /* USER CODE BEGIN UsageFault_IRQn 0 */

  /* USER CODE END UsageFault_IRQn 0 */
  while (1)
 80003a8:	e7fe      	b.n	80003a8 <UsageFault_Handler+0x4>

080003aa <SVC_Handler>:

/**
  * @brief This function handles System service call via SWI instruction.
  */
void SVC_Handler(void)
{
 80003aa:	b480      	push	{r7}
 80003ac:	af00      	add	r7, sp, #0

  /* USER CODE END SVCall_IRQn 0 */
  /* USER CODE BEGIN SVCall_IRQn 1 */

  /* USER CODE END SVCall_IRQn 1 */
}
 80003ae:	bf00      	nop
 80003b0:	46bd      	mov	sp, r7
 80003b2:	bc80      	pop	{r7}
 80003b4:	4770      	bx	lr

080003b6 <DebugMon_Handler>:

/**
  * @brief This function handles Debug monitor.
  */
void DebugMon_Handler(void)
{
 80003b6:	b480      	push	{r7}
 80003b8:	af00      	add	r7, sp, #0

  /* USER CODE END DebugMonitor_IRQn 0 */
  /* USER CODE BEGIN DebugMonitor_IRQn 1 */

  /* USER CODE END DebugMonitor_IRQn 1 */
}
 80003ba:	bf00      	nop
 80003bc:	46bd      	mov	sp, r7
 80003be:	bc80      	pop	{r7}
 80003c0:	4770      	bx	lr

080003c2 <PendSV_Handler>:

/**
  * @brief This function handles Pendable request for system service.
  */
void PendSV_Handler(void)
{
 80003c2:	b480      	push	{r7}
 80003c4:	af00      	add	r7, sp, #0

  /* USER CODE END PendSV_IRQn 0 */
  /* USER CODE BEGIN PendSV_IRQn 1 */

  /* USER CODE END PendSV_IRQn 1 */
}
 80003c6:	bf00      	nop
 80003c8:	46bd      	mov	sp, r7
 80003ca:	bc80      	pop	{r7}
 80003cc:	4770      	bx	lr

080003ce <SysTick_Handler>:

/**
  * @brief This function handles System tick timer.
  */
void SysTick_Handler(void)
{
 80003ce:	b580      	push	{r7, lr}
 80003d0:	af00      	add	r7, sp, #0
  /* USER CODE BEGIN SysTick_IRQn 0 */

  /* USER CODE END SysTick_IRQn 0 */
  HAL_IncTick();
 80003d2:	f000 f87f 	bl	80004d4 <HAL_IncTick>
  /* USER CODE BEGIN SysTick_IRQn 1 */

  /* USER CODE END SysTick_IRQn 1 */
}
 80003d6:	bf00      	nop
 80003d8:	bd80      	pop	{r7, pc}
	...

080003dc <TIM2_IRQHandler>:

/**
  * @brief This function handles TIM2 global interrupt.
  */
void TIM2_IRQHandler(void)
{
 80003dc:	b580      	push	{r7, lr}
 80003de:	af00      	add	r7, sp, #0
  /* USER CODE BEGIN TIM2_IRQn 0 */

  /* USER CODE END TIM2_IRQn 0 */
  HAL_TIM_IRQHandler(&htim2);
 80003e0:	4802      	ldr	r0, [pc, #8]	; (80003ec <TIM2_IRQHandler+0x10>)
 80003e2:	f000 ffaf 	bl	8001344 <HAL_TIM_IRQHandler>
  /* USER CODE BEGIN TIM2_IRQn 1 */

  /* USER CODE END TIM2_IRQn 1 */
}
 80003e6:	bf00      	nop
 80003e8:	bd80      	pop	{r7, pc}
 80003ea:	bf00      	nop
 80003ec:	20000028 	.word	0x20000028

080003f0 <SystemInit>:
  * @note   This function should be used only after reset.
  * @param  None
  * @retval None
  */
void SystemInit (void)
{
 80003f0:	b480      	push	{r7}
 80003f2:	af00      	add	r7, sp, #0

  /* Configure the Vector Table location -------------------------------------*/
#if defined(USER_VECT_TAB_ADDRESS)
  SCB->VTOR = VECT_TAB_BASE_ADDRESS | VECT_TAB_OFFSET; /* Vector Table Relocation in Internal SRAM. */
#endif /* USER_VECT_TAB_ADDRESS */
}
 80003f4:	bf00      	nop
 80003f6:	46bd      	mov	sp, r7
 80003f8:	bc80      	pop	{r7}
 80003fa:	4770      	bx	lr

080003fc <Reset_Handler>:
  .weak Reset_Handler
  .type Reset_Handler, %function
Reset_Handler:

/* Call the clock system initialization function.*/
    bl  SystemInit
 80003fc:	f7ff fff8 	bl	80003f0 <SystemInit>

/* Copy the data segment initializers from flash to SRAM */
  ldr r0, =_sdata
 8000400:	480b      	ldr	r0, [pc, #44]	; (8000430 <LoopFillZerobss+0xe>)
  ldr r1, =_edata
 8000402:	490c      	ldr	r1, [pc, #48]	; (8000434 <LoopFillZerobss+0x12>)
  ldr r2, =_sidata
 8000404:	4a0c      	ldr	r2, [pc, #48]	; (8000438 <LoopFillZerobss+0x16>)
  movs r3, #0
 8000406:	2300      	movs	r3, #0
  b LoopCopyDataInit
 8000408:	e002      	b.n	8000410 <LoopCopyDataInit>

0800040a <CopyDataInit>:

CopyDataInit:
  ldr r4, [r2, r3]
 800040a:	58d4      	ldr	r4, [r2, r3]
  str r4, [r0, r3]
 800040c:	50c4      	str	r4, [r0, r3]
  adds r3, r3, #4
 800040e:	3304      	adds	r3, #4

08000410 <LoopCopyDataInit>:

LoopCopyDataInit:
  adds r4, r0, r3
 8000410:	18c4      	adds	r4, r0, r3
  cmp r4, r1
 8000412:	428c      	cmp	r4, r1
  bcc CopyDataInit
 8000414:	d3f9      	bcc.n	800040a <CopyDataInit>
  
/* Zero fill the bss segment. */
  ldr r2, =_sbss
 8000416:	4a09      	ldr	r2, [pc, #36]	; (800043c <LoopFillZerobss+0x1a>)
  ldr r4, =_ebss
 8000418:	4c09      	ldr	r4, [pc, #36]	; (8000440 <LoopFillZerobss+0x1e>)
  movs r3, #0
 800041a:	2300      	movs	r3, #0
  b LoopFillZerobss
 800041c:	e001      	b.n	8000422 <LoopFillZerobss>

0800041e <FillZerobss>:

FillZerobss:
  str  r3, [r2]
 800041e:	6013      	str	r3, [r2, #0]
  adds r2, r2, #4
 8000420:	3204      	adds	r2, #4

08000422 <LoopFillZerobss>:

LoopFillZerobss:
  cmp r2, r4
 8000422:	42a2      	cmp	r2, r4
  bcc FillZerobss
 8000424:	d3fb      	bcc.n	800041e <FillZerobss>

/* Call static constructors */
    bl __libc_init_array
 8000426:	f001 fad9 	bl	80019dc <__libc_init_array>
/* Call the application's entry point.*/
  bl main
 800042a:	f7ff fe8f 	bl	800014c <main>
  bx lr
 800042e:	4770      	bx	lr
  ldr r0, =_sdata
 8000430:	20000000 	.word	0x20000000
  ldr r1, =_edata
 8000434:	2000000c 	.word	0x2000000c
  ldr r2, =_sidata
 8000438:	08001a78 	.word	0x08001a78
  ldr r2, =_sbss
 800043c:	2000000c 	.word	0x2000000c
  ldr r4, =_ebss
 8000440:	20000074 	.word	0x20000074

08000444 <ADC1_2_IRQHandler>:
 * @retval : None
*/
    .section .text.Default_Handler,"ax",%progbits
Default_Handler:
Infinite_Loop:
  b Infinite_Loop
 8000444:	e7fe      	b.n	8000444 <ADC1_2_IRQHandler>
	...

08000448 <HAL_Init>:
  *         need to ensure that the SysTick time base is always set to 1 millisecond
  *         to have correct HAL operation.
  * @retval HAL status
  */
HAL_StatusTypeDef HAL_Init(void)
{
 8000448:	b580      	push	{r7, lr}
 800044a:	af00      	add	r7, sp, #0
    defined(STM32F102x6) || defined(STM32F102xB) || \
    defined(STM32F103x6) || defined(STM32F103xB) || defined(STM32F103xE) || defined(STM32F103xG) || \
    defined(STM32F105xC) || defined(STM32F107xC)

  /* Prefetch buffer is not available on value line devices */
  __HAL_FLASH_PREFETCH_BUFFER_ENABLE();
 800044c:	4b08      	ldr	r3, [pc, #32]	; (8000470 <HAL_Init+0x28>)
 800044e:	681b      	ldr	r3, [r3, #0]
 8000450:	4a07      	ldr	r2, [pc, #28]	; (8000470 <HAL_Init+0x28>)
 8000452:	f043 0310 	orr.w	r3, r3, #16
 8000456:	6013      	str	r3, [r2, #0]
#endif
#endif /* PREFETCH_ENABLE */

  /* Set Interrupt Group Priority */
  HAL_NVIC_SetPriorityGrouping(NVIC_PRIORITYGROUP_4);
 8000458:	2003      	movs	r0, #3
 800045a:	f000 f923 	bl	80006a4 <HAL_NVIC_SetPriorityGrouping>

  /* Use systick as time base source and configure 1ms tick (default clock after Reset is HSI) */
  HAL_InitTick(TICK_INT_PRIORITY);
 800045e:	200f      	movs	r0, #15
 8000460:	f000 f808 	bl	8000474 <HAL_InitTick>

  /* Init the low level hardware */
  HAL_MspInit();
 8000464:	f7ff ff4c 	bl	8000300 <HAL_MspInit>

  /* Return function status */
  return HAL_OK;
 8000468:	2300      	movs	r3, #0
}
 800046a:	4618      	mov	r0, r3
 800046c:	bd80      	pop	{r7, pc}
 800046e:	bf00      	nop
 8000470:	40022000 	.word	0x40022000

08000474 <HAL_InitTick>:
  *       implementation  in user file.
  * @param TickPriority Tick interrupt priority.
  * @retval HAL status
  */
__weak HAL_StatusTypeDef HAL_InitTick(uint32_t TickPriority)
{
 8000474:	b580      	push	{r7, lr}
 8000476:	b082      	sub	sp, #8
 8000478:	af00      	add	r7, sp, #0
 800047a:	6078      	str	r0, [r7, #4]
  /* Configure the SysTick to have interrupt in 1ms time basis*/
  if (HAL_SYSTICK_Config(SystemCoreClock / (1000U / uwTickFreq)) > 0U)
 800047c:	4b12      	ldr	r3, [pc, #72]	; (80004c8 <HAL_InitTick+0x54>)
 800047e:	681a      	ldr	r2, [r3, #0]
 8000480:	4b12      	ldr	r3, [pc, #72]	; (80004cc <HAL_InitTick+0x58>)
 8000482:	781b      	ldrb	r3, [r3, #0]
 8000484:	4619      	mov	r1, r3
 8000486:	f44f 737a 	mov.w	r3, #1000	; 0x3e8
 800048a:	fbb3 f3f1 	udiv	r3, r3, r1
 800048e:	fbb2 f3f3 	udiv	r3, r2, r3
 8000492:	4618      	mov	r0, r3
 8000494:	f000 f93b 	bl	800070e <HAL_SYSTICK_Config>
 8000498:	4603      	mov	r3, r0
 800049a:	2b00      	cmp	r3, #0
 800049c:	d001      	beq.n	80004a2 <HAL_InitTick+0x2e>
  {
    return HAL_ERROR;
 800049e:	2301      	movs	r3, #1
 80004a0:	e00e      	b.n	80004c0 <HAL_InitTick+0x4c>
  }

  /* Configure the SysTick IRQ priority */
  if (TickPriority < (1UL << __NVIC_PRIO_BITS))
 80004a2:	687b      	ldr	r3, [r7, #4]
 80004a4:	2b0f      	cmp	r3, #15
 80004a6:	d80a      	bhi.n	80004be <HAL_InitTick+0x4a>
  {
    HAL_NVIC_SetPriority(SysTick_IRQn, TickPriority, 0U);
 80004a8:	2200      	movs	r2, #0
 80004aa:	6879      	ldr	r1, [r7, #4]
 80004ac:	f04f 30ff 	mov.w	r0, #4294967295
 80004b0:	f000 f903 	bl	80006ba <HAL_NVIC_SetPriority>
    uwTickPrio = TickPriority;
 80004b4:	4a06      	ldr	r2, [pc, #24]	; (80004d0 <HAL_InitTick+0x5c>)
 80004b6:	687b      	ldr	r3, [r7, #4]
 80004b8:	6013      	str	r3, [r2, #0]
  {
    return HAL_ERROR;
  }

  /* Return function status */
  return HAL_OK;
 80004ba:	2300      	movs	r3, #0
 80004bc:	e000      	b.n	80004c0 <HAL_InitTick+0x4c>
    return HAL_ERROR;
 80004be:	2301      	movs	r3, #1
}
 80004c0:	4618      	mov	r0, r3
 80004c2:	3708      	adds	r7, #8
 80004c4:	46bd      	mov	sp, r7
 80004c6:	bd80      	pop	{r7, pc}
 80004c8:	20000000 	.word	0x20000000
 80004cc:	20000008 	.word	0x20000008
 80004d0:	20000004 	.word	0x20000004

080004d4 <HAL_IncTick>:
  * @note This function is declared as __weak to be overwritten in case of other
  *      implementations in user file.
  * @retval None
  */
__weak void HAL_IncTick(void)
{
 80004d4:	b480      	push	{r7}
 80004d6:	af00      	add	r7, sp, #0
  uwTick += uwTickFreq;
 80004d8:	4b05      	ldr	r3, [pc, #20]	; (80004f0 <HAL_IncTick+0x1c>)
 80004da:	781b      	ldrb	r3, [r3, #0]
 80004dc:	461a      	mov	r2, r3
 80004de:	4b05      	ldr	r3, [pc, #20]	; (80004f4 <HAL_IncTick+0x20>)
 80004e0:	681b      	ldr	r3, [r3, #0]
 80004e2:	4413      	add	r3, r2
 80004e4:	4a03      	ldr	r2, [pc, #12]	; (80004f4 <HAL_IncTick+0x20>)
 80004e6:	6013      	str	r3, [r2, #0]
}
 80004e8:	bf00      	nop
 80004ea:	46bd      	mov	sp, r7
 80004ec:	bc80      	pop	{r7}
 80004ee:	4770      	bx	lr
 80004f0:	20000008 	.word	0x20000008
 80004f4:	20000070 	.word	0x20000070

080004f8 <HAL_GetTick>:
  * @note  This function is declared as __weak to be overwritten in case of other
  *       implementations in user file.
  * @retval tick value
  */
__weak uint32_t HAL_GetTick(void)
{
 80004f8:	b480      	push	{r7}
 80004fa:	af00      	add	r7, sp, #0
  return uwTick;
 80004fc:	4b02      	ldr	r3, [pc, #8]	; (8000508 <HAL_GetTick+0x10>)
 80004fe:	681b      	ldr	r3, [r3, #0]
}
 8000500:	4618      	mov	r0, r3
 8000502:	46bd      	mov	sp, r7
 8000504:	bc80      	pop	{r7}
 8000506:	4770      	bx	lr
 8000508:	20000070 	.word	0x20000070

0800050c <__NVIC_SetPriorityGrouping>:
           In case of a conflict between priority grouping and available
           priority bits (__NVIC_PRIO_BITS), the smallest possible priority group is set.
  \param [in]      PriorityGroup  Priority grouping field.
 */
__STATIC_INLINE void __NVIC_SetPriorityGrouping(uint32_t PriorityGroup)
{
 800050c:	b480      	push	{r7}
 800050e:	b085      	sub	sp, #20
 8000510:	af00      	add	r7, sp, #0
 8000512:	6078      	str	r0, [r7, #4]
  uint32_t reg_value;
  uint32_t PriorityGroupTmp = (PriorityGroup & (uint32_t)0x07UL);             /* only values 0..7 are used          */
 8000514:	687b      	ldr	r3, [r7, #4]
 8000516:	f003 0307 	and.w	r3, r3, #7
 800051a:	60fb      	str	r3, [r7, #12]

  reg_value  =  SCB->AIRCR;                                                   /* read old register configuration    */
 800051c:	4b0c      	ldr	r3, [pc, #48]	; (8000550 <__NVIC_SetPriorityGrouping+0x44>)
 800051e:	68db      	ldr	r3, [r3, #12]
 8000520:	60bb      	str	r3, [r7, #8]
  reg_value &= ~((uint32_t)(SCB_AIRCR_VECTKEY_Msk | SCB_AIRCR_PRIGROUP_Msk)); /* clear bits to change               */
 8000522:	68ba      	ldr	r2, [r7, #8]
 8000524:	f64f 03ff 	movw	r3, #63743	; 0xf8ff
 8000528:	4013      	ands	r3, r2
 800052a:	60bb      	str	r3, [r7, #8]
  reg_value  =  (reg_value                                   |
                ((uint32_t)0x5FAUL << SCB_AIRCR_VECTKEY_Pos) |
                (PriorityGroupTmp << SCB_AIRCR_PRIGROUP_Pos) );               /* Insert write key and priority group */
 800052c:	68fb      	ldr	r3, [r7, #12]
 800052e:	021a      	lsls	r2, r3, #8
                ((uint32_t)0x5FAUL << SCB_AIRCR_VECTKEY_Pos) |
 8000530:	68bb      	ldr	r3, [r7, #8]
 8000532:	4313      	orrs	r3, r2
  reg_value  =  (reg_value                                   |
 8000534:	f043 63bf 	orr.w	r3, r3, #100139008	; 0x5f80000
 8000538:	f443 3300 	orr.w	r3, r3, #131072	; 0x20000
 800053c:	60bb      	str	r3, [r7, #8]
  SCB->AIRCR =  reg_value;
 800053e:	4a04      	ldr	r2, [pc, #16]	; (8000550 <__NVIC_SetPriorityGrouping+0x44>)
 8000540:	68bb      	ldr	r3, [r7, #8]
 8000542:	60d3      	str	r3, [r2, #12]
}
 8000544:	bf00      	nop
 8000546:	3714      	adds	r7, #20
 8000548:	46bd      	mov	sp, r7
 800054a:	bc80      	pop	{r7}
 800054c:	4770      	bx	lr
 800054e:	bf00      	nop
 8000550:	e000ed00 	.word	0xe000ed00

08000554 <__NVIC_GetPriorityGrouping>:
  \brief   Get Priority Grouping
  \details Reads the priority grouping field from the NVIC Interrupt Controller.
  \return                Priority grouping field (SCB->AIRCR [10:8] PRIGROUP field).
 */
__STATIC_INLINE uint32_t __NVIC_GetPriorityGrouping(void)
{
 8000554:	b480      	push	{r7}
 8000556:	af00      	add	r7, sp, #0
  return ((uint32_t)((SCB->AIRCR & SCB_AIRCR_PRIGROUP_Msk) >> SCB_AIRCR_PRIGROUP_Pos));
 8000558:	4b04      	ldr	r3, [pc, #16]	; (800056c <__NVIC_GetPriorityGrouping+0x18>)
 800055a:	68db      	ldr	r3, [r3, #12]
 800055c:	0a1b      	lsrs	r3, r3, #8
 800055e:	f003 0307 	and.w	r3, r3, #7
}
 8000562:	4618      	mov	r0, r3
 8000564:	46bd      	mov	sp, r7
 8000566:	bc80      	pop	{r7}
 8000568:	4770      	bx	lr
 800056a:	bf00      	nop
 800056c:	e000ed00 	.word	0xe000ed00

08000570 <__NVIC_EnableIRQ>:
  \details Enables a device specific interrupt in the NVIC interrupt controller.
  \param [in]      IRQn  Device specific interrupt number.
  \note    IRQn must not be negative.
 */
__STATIC_INLINE void __NVIC_EnableIRQ(IRQn_Type IRQn)
{
 8000570:	b480      	push	{r7}
 8000572:	b083      	sub	sp, #12
 8000574:	af00      	add	r7, sp, #0
 8000576:	4603      	mov	r3, r0
 8000578:	71fb      	strb	r3, [r7, #7]
  if ((int32_t)(IRQn) >= 0)
 800057a:	f997 3007 	ldrsb.w	r3, [r7, #7]
 800057e:	2b00      	cmp	r3, #0
 8000580:	db0b      	blt.n	800059a <__NVIC_EnableIRQ+0x2a>
  {
    NVIC->ISER[(((uint32_t)IRQn) >> 5UL)] = (uint32_t)(1UL << (((uint32_t)IRQn) & 0x1FUL));
 8000582:	79fb      	ldrb	r3, [r7, #7]
 8000584:	f003 021f 	and.w	r2, r3, #31
 8000588:	4906      	ldr	r1, [pc, #24]	; (80005a4 <__NVIC_EnableIRQ+0x34>)
 800058a:	f997 3007 	ldrsb.w	r3, [r7, #7]
 800058e:	095b      	lsrs	r3, r3, #5
 8000590:	2001      	movs	r0, #1
 8000592:	fa00 f202 	lsl.w	r2, r0, r2
 8000596:	f841 2023 	str.w	r2, [r1, r3, lsl #2]
  }
}
 800059a:	bf00      	nop
 800059c:	370c      	adds	r7, #12
 800059e:	46bd      	mov	sp, r7
 80005a0:	bc80      	pop	{r7}
 80005a2:	4770      	bx	lr
 80005a4:	e000e100 	.word	0xe000e100

080005a8 <__NVIC_SetPriority>:
  \param [in]      IRQn  Interrupt number.
  \param [in]  priority  Priority to set.
  \note    The priority cannot be set for every processor exception.
 */
__STATIC_INLINE void __NVIC_SetPriority(IRQn_Type IRQn, uint32_t priority)
{
 80005a8:	b480      	push	{r7}
 80005aa:	b083      	sub	sp, #12
 80005ac:	af00      	add	r7, sp, #0
 80005ae:	4603      	mov	r3, r0
 80005b0:	6039      	str	r1, [r7, #0]
 80005b2:	71fb      	strb	r3, [r7, #7]
  if ((int32_t)(IRQn) >= 0)
 80005b4:	f997 3007 	ldrsb.w	r3, [r7, #7]
 80005b8:	2b00      	cmp	r3, #0
 80005ba:	db0a      	blt.n	80005d2 <__NVIC_SetPriority+0x2a>
  {
    NVIC->IP[((uint32_t)IRQn)]               = (uint8_t)((priority << (8U - __NVIC_PRIO_BITS)) & (uint32_t)0xFFUL);
 80005bc:	683b      	ldr	r3, [r7, #0]
 80005be:	b2da      	uxtb	r2, r3
 80005c0:	490c      	ldr	r1, [pc, #48]	; (80005f4 <__NVIC_SetPriority+0x4c>)
 80005c2:	f997 3007 	ldrsb.w	r3, [r7, #7]
 80005c6:	0112      	lsls	r2, r2, #4
 80005c8:	b2d2      	uxtb	r2, r2
 80005ca:	440b      	add	r3, r1
 80005cc:	f883 2300 	strb.w	r2, [r3, #768]	; 0x300
  }
  else
  {
    SCB->SHP[(((uint32_t)IRQn) & 0xFUL)-4UL] = (uint8_t)((priority << (8U - __NVIC_PRIO_BITS)) & (uint32_t)0xFFUL);
  }
}
 80005d0:	e00a      	b.n	80005e8 <__NVIC_SetPriority+0x40>
    SCB->SHP[(((uint32_t)IRQn) & 0xFUL)-4UL] = (uint8_t)((priority << (8U - __NVIC_PRIO_BITS)) & (uint32_t)0xFFUL);
 80005d2:	683b      	ldr	r3, [r7, #0]
 80005d4:	b2da      	uxtb	r2, r3
 80005d6:	4908      	ldr	r1, [pc, #32]	; (80005f8 <__NVIC_SetPriority+0x50>)
 80005d8:	79fb      	ldrb	r3, [r7, #7]
 80005da:	f003 030f 	and.w	r3, r3, #15
 80005de:	3b04      	subs	r3, #4
 80005e0:	0112      	lsls	r2, r2, #4
 80005e2:	b2d2      	uxtb	r2, r2
 80005e4:	440b      	add	r3, r1
 80005e6:	761a      	strb	r2, [r3, #24]
}
 80005e8:	bf00      	nop
 80005ea:	370c      	adds	r7, #12
 80005ec:	46bd      	mov	sp, r7
 80005ee:	bc80      	pop	{r7}
 80005f0:	4770      	bx	lr
 80005f2:	bf00      	nop
 80005f4:	e000e100 	.word	0xe000e100
 80005f8:	e000ed00 	.word	0xe000ed00

080005fc <NVIC_EncodePriority>:
  \param [in]   PreemptPriority  Preemptive priority value (starting from 0).
  \param [in]       SubPriority  Subpriority value (starting from 0).
  \return                        Encoded priority. Value can be used in the function \ref NVIC_SetPriority().
 */
__STATIC_INLINE uint32_t NVIC_EncodePriority (uint32_t PriorityGroup, uint32_t PreemptPriority, uint32_t SubPriority)
{
 80005fc:	b480      	push	{r7}
 80005fe:	b089      	sub	sp, #36	; 0x24
 8000600:	af00      	add	r7, sp, #0
 8000602:	60f8      	str	r0, [r7, #12]
 8000604:	60b9      	str	r1, [r7, #8]
 8000606:	607a      	str	r2, [r7, #4]
  uint32_t PriorityGroupTmp = (PriorityGroup & (uint32_t)0x07UL);   /* only values 0..7 are used          */
 8000608:	68fb      	ldr	r3, [r7, #12]
 800060a:	f003 0307 	and.w	r3, r3, #7
 800060e:	61fb      	str	r3, [r7, #28]
  uint32_t PreemptPriorityBits;
  uint32_t SubPriorityBits;

  PreemptPriorityBits = ((7UL - PriorityGroupTmp) > (uint32_t)(__NVIC_PRIO_BITS)) ? (uint32_t)(__NVIC_PRIO_BITS) : (uint32_t)(7UL - PriorityGroupTmp);
 8000610:	69fb      	ldr	r3, [r7, #28]
 8000612:	f1c3 0307 	rsb	r3, r3, #7
 8000616:	2b04      	cmp	r3, #4
 8000618:	bf28      	it	cs
 800061a:	2304      	movcs	r3, #4
 800061c:	61bb      	str	r3, [r7, #24]
  SubPriorityBits     = ((PriorityGroupTmp + (uint32_t)(__NVIC_PRIO_BITS)) < (uint32_t)7UL) ? (uint32_t)0UL : (uint32_t)((PriorityGroupTmp - 7UL) + (uint32_t)(__NVIC_PRIO_BITS));
 800061e:	69fb      	ldr	r3, [r7, #28]
 8000620:	3304      	adds	r3, #4
 8000622:	2b06      	cmp	r3, #6
 8000624:	d902      	bls.n	800062c <NVIC_EncodePriority+0x30>
 8000626:	69fb      	ldr	r3, [r7, #28]
 8000628:	3b03      	subs	r3, #3
 800062a:	e000      	b.n	800062e <NVIC_EncodePriority+0x32>
 800062c:	2300      	movs	r3, #0
 800062e:	617b      	str	r3, [r7, #20]

  return (
           ((PreemptPriority & (uint32_t)((1UL << (PreemptPriorityBits)) - 1UL)) << SubPriorityBits) |
 8000630:	f04f 32ff 	mov.w	r2, #4294967295
 8000634:	69bb      	ldr	r3, [r7, #24]
 8000636:	fa02 f303 	lsl.w	r3, r2, r3
 800063a:	43da      	mvns	r2, r3
 800063c:	68bb      	ldr	r3, [r7, #8]
 800063e:	401a      	ands	r2, r3
 8000640:	697b      	ldr	r3, [r7, #20]
 8000642:	409a      	lsls	r2, r3
           ((SubPriority     & (uint32_t)((1UL << (SubPriorityBits    )) - 1UL)))
 8000644:	f04f 31ff 	mov.w	r1, #4294967295
 8000648:	697b      	ldr	r3, [r7, #20]
 800064a:	fa01 f303 	lsl.w	r3, r1, r3
 800064e:	43d9      	mvns	r1, r3
 8000650:	687b      	ldr	r3, [r7, #4]
 8000652:	400b      	ands	r3, r1
           ((PreemptPriority & (uint32_t)((1UL << (PreemptPriorityBits)) - 1UL)) << SubPriorityBits) |
 8000654:	4313      	orrs	r3, r2
         );
}
 8000656:	4618      	mov	r0, r3
 8000658:	3724      	adds	r7, #36	; 0x24
 800065a:	46bd      	mov	sp, r7
 800065c:	bc80      	pop	{r7}
 800065e:	4770      	bx	lr

08000660 <SysTick_Config>:
  \note    When the variable <b>__Vendor_SysTickConfig</b> is set to 1, then the
           function <b>SysTick_Config</b> is not included. In this case, the file <b><i>device</i>.h</b>
           must contain a vendor-specific implementation of this function.
 */
__STATIC_INLINE uint32_t SysTick_Config(uint32_t ticks)
{
 8000660:	b580      	push	{r7, lr}
 8000662:	b082      	sub	sp, #8
 8000664:	af00      	add	r7, sp, #0
 8000666:	6078      	str	r0, [r7, #4]
  if ((ticks - 1UL) > SysTick_LOAD_RELOAD_Msk)
 8000668:	687b      	ldr	r3, [r7, #4]
 800066a:	3b01      	subs	r3, #1
 800066c:	f1b3 7f80 	cmp.w	r3, #16777216	; 0x1000000
 8000670:	d301      	bcc.n	8000676 <SysTick_Config+0x16>
  {
    return (1UL);                                                   /* Reload value impossible */
 8000672:	2301      	movs	r3, #1
 8000674:	e00f      	b.n	8000696 <SysTick_Config+0x36>
  }

  SysTick->LOAD  = (uint32_t)(ticks - 1UL);                         /* set reload register */
 8000676:	4a0a      	ldr	r2, [pc, #40]	; (80006a0 <SysTick_Config+0x40>)
 8000678:	687b      	ldr	r3, [r7, #4]
 800067a:	3b01      	subs	r3, #1
 800067c:	6053      	str	r3, [r2, #4]
  NVIC_SetPriority (SysTick_IRQn, (1UL << __NVIC_PRIO_BITS) - 1UL); /* set Priority for Systick Interrupt */
 800067e:	210f      	movs	r1, #15
 8000680:	f04f 30ff 	mov.w	r0, #4294967295
 8000684:	f7ff ff90 	bl	80005a8 <__NVIC_SetPriority>
  SysTick->VAL   = 0UL;                                             /* Load the SysTick Counter Value */
 8000688:	4b05      	ldr	r3, [pc, #20]	; (80006a0 <SysTick_Config+0x40>)
 800068a:	2200      	movs	r2, #0
 800068c:	609a      	str	r2, [r3, #8]
  SysTick->CTRL  = SysTick_CTRL_CLKSOURCE_Msk |
 800068e:	4b04      	ldr	r3, [pc, #16]	; (80006a0 <SysTick_Config+0x40>)
 8000690:	2207      	movs	r2, #7
 8000692:	601a      	str	r2, [r3, #0]
                   SysTick_CTRL_TICKINT_Msk   |
                   SysTick_CTRL_ENABLE_Msk;                         /* Enable SysTick IRQ and SysTick Timer */
  return (0UL);                                                     /* Function successful */
 8000694:	2300      	movs	r3, #0
}
 8000696:	4618      	mov	r0, r3
 8000698:	3708      	adds	r7, #8
 800069a:	46bd      	mov	sp, r7
 800069c:	bd80      	pop	{r7, pc}
 800069e:	bf00      	nop
 80006a0:	e000e010 	.word	0xe000e010

080006a4 <HAL_NVIC_SetPriorityGrouping>:
  * @note   When the NVIC_PriorityGroup_0 is selected, IRQ preemption is no more possible. 
  *         The pending IRQ priority will be managed only by the subpriority. 
  * @retval None
  */
void HAL_NVIC_SetPriorityGrouping(uint32_t PriorityGroup)
{
 80006a4:	b580      	push	{r7, lr}
 80006a6:	b082      	sub	sp, #8
 80006a8:	af00      	add	r7, sp, #0
 80006aa:	6078      	str	r0, [r7, #4]
  /* Check the parameters */
  assert_param(IS_NVIC_PRIORITY_GROUP(PriorityGroup));
  
  /* Set the PRIGROUP[10:8] bits according to the PriorityGroup parameter value */
  NVIC_SetPriorityGrouping(PriorityGroup);
 80006ac:	6878      	ldr	r0, [r7, #4]
 80006ae:	f7ff ff2d 	bl	800050c <__NVIC_SetPriorityGrouping>
}
 80006b2:	bf00      	nop
 80006b4:	3708      	adds	r7, #8
 80006b6:	46bd      	mov	sp, r7
 80006b8:	bd80      	pop	{r7, pc}

080006ba <HAL_NVIC_SetPriority>:
  *         This parameter can be a value between 0 and 15
  *         A lower priority value indicates a higher priority.          
  * @retval None
  */
void HAL_NVIC_SetPriority(IRQn_Type IRQn, uint32_t PreemptPriority, uint32_t SubPriority)
{ 
 80006ba:	b580      	push	{r7, lr}
 80006bc:	b086      	sub	sp, #24
 80006be:	af00      	add	r7, sp, #0
 80006c0:	4603      	mov	r3, r0
 80006c2:	60b9      	str	r1, [r7, #8]
 80006c4:	607a      	str	r2, [r7, #4]
 80006c6:	73fb      	strb	r3, [r7, #15]
  uint32_t prioritygroup = 0x00U;
 80006c8:	2300      	movs	r3, #0
 80006ca:	617b      	str	r3, [r7, #20]
  
  /* Check the parameters */
  assert_param(IS_NVIC_SUB_PRIORITY(SubPriority));
  assert_param(IS_NVIC_PREEMPTION_PRIORITY(PreemptPriority));
  
  prioritygroup = NVIC_GetPriorityGrouping();
 80006cc:	f7ff ff42 	bl	8000554 <__NVIC_GetPriorityGrouping>
 80006d0:	6178      	str	r0, [r7, #20]
  
  NVIC_SetPriority(IRQn, NVIC_EncodePriority(prioritygroup, PreemptPriority, SubPriority));
 80006d2:	687a      	ldr	r2, [r7, #4]
 80006d4:	68b9      	ldr	r1, [r7, #8]
 80006d6:	6978      	ldr	r0, [r7, #20]
 80006d8:	f7ff ff90 	bl	80005fc <NVIC_EncodePriority>
 80006dc:	4602      	mov	r2, r0
 80006de:	f997 300f 	ldrsb.w	r3, [r7, #15]
 80006e2:	4611      	mov	r1, r2
 80006e4:	4618      	mov	r0, r3
 80006e6:	f7ff ff5f 	bl	80005a8 <__NVIC_SetPriority>
}
 80006ea:	bf00      	nop
 80006ec:	3718      	adds	r7, #24
 80006ee:	46bd      	mov	sp, r7
 80006f0:	bd80      	pop	{r7, pc}

080006f2 <HAL_NVIC_EnableIRQ>:
  *         This parameter can be an enumerator of IRQn_Type enumeration
  *         (For the complete STM32 Devices IRQ Channels list, please refer to the appropriate CMSIS device file (stm32f10xxx.h))
  * @retval None
  */
void HAL_NVIC_EnableIRQ(IRQn_Type IRQn)
{
 80006f2:	b580      	push	{r7, lr}
 80006f4:	b082      	sub	sp, #8
 80006f6:	af00      	add	r7, sp, #0
 80006f8:	4603      	mov	r3, r0
 80006fa:	71fb      	strb	r3, [r7, #7]
  /* Check the parameters */
  assert_param(IS_NVIC_DEVICE_IRQ(IRQn));

  /* Enable interrupt */
  NVIC_EnableIRQ(IRQn);
 80006fc:	f997 3007 	ldrsb.w	r3, [r7, #7]
 8000700:	4618      	mov	r0, r3
 8000702:	f7ff ff35 	bl	8000570 <__NVIC_EnableIRQ>
}
 8000706:	bf00      	nop
 8000708:	3708      	adds	r7, #8
 800070a:	46bd      	mov	sp, r7
 800070c:	bd80      	pop	{r7, pc}

0800070e <HAL_SYSTICK_Config>:
  * @param  TicksNumb: Specifies the ticks Number of ticks between two interrupts.
  * @retval status:  - 0  Function succeeded.
  *                  - 1  Function failed.
  */
uint32_t HAL_SYSTICK_Config(uint32_t TicksNumb)
{
 800070e:	b580      	push	{r7, lr}
 8000710:	b082      	sub	sp, #8
 8000712:	af00      	add	r7, sp, #0
 8000714:	6078      	str	r0, [r7, #4]
   return SysTick_Config(TicksNumb);
 8000716:	6878      	ldr	r0, [r7, #4]
 8000718:	f7ff ffa2 	bl	8000660 <SysTick_Config>
 800071c:	4603      	mov	r3, r0
}
 800071e:	4618      	mov	r0, r3
 8000720:	3708      	adds	r7, #8
 8000722:	46bd      	mov	sp, r7
 8000724:	bd80      	pop	{r7, pc}
	...

08000728 <HAL_GPIO_Init>:
  * @param  GPIO_Init: pointer to a GPIO_InitTypeDef structure that contains
  *         the configuration information for the specified GPIO peripheral.
  * @retval None
  */
void HAL_GPIO_Init(GPIO_TypeDef  *GPIOx, GPIO_InitTypeDef *GPIO_Init)
{
 8000728:	b480      	push	{r7}
 800072a:	b08b      	sub	sp, #44	; 0x2c
 800072c:	af00      	add	r7, sp, #0
 800072e:	6078      	str	r0, [r7, #4]
 8000730:	6039      	str	r1, [r7, #0]
  uint32_t position = 0x00u;
 8000732:	2300      	movs	r3, #0
 8000734:	627b      	str	r3, [r7, #36]	; 0x24
  uint32_t ioposition;
  uint32_t iocurrent;
  uint32_t temp;
  uint32_t config = 0x00u;
 8000736:	2300      	movs	r3, #0
 8000738:	623b      	str	r3, [r7, #32]
  assert_param(IS_GPIO_ALL_INSTANCE(GPIOx));
  assert_param(IS_GPIO_PIN(GPIO_Init->Pin));
  assert_param(IS_GPIO_MODE(GPIO_Init->Mode));

  /* Configure the port pins */
  while (((GPIO_Init->Pin) >> position) != 0x00u)
 800073a:	e161      	b.n	8000a00 <HAL_GPIO_Init+0x2d8>
  {
    /* Get the IO position */
    ioposition = (0x01uL << position);
 800073c:	2201      	movs	r2, #1
 800073e:	6a7b      	ldr	r3, [r7, #36]	; 0x24
 8000740:	fa02 f303 	lsl.w	r3, r2, r3
 8000744:	61fb      	str	r3, [r7, #28]

    /* Get the current IO position */
    iocurrent = (uint32_t)(GPIO_Init->Pin) & ioposition;
 8000746:	683b      	ldr	r3, [r7, #0]
 8000748:	681b      	ldr	r3, [r3, #0]
 800074a:	69fa      	ldr	r2, [r7, #28]
 800074c:	4013      	ands	r3, r2
 800074e:	61bb      	str	r3, [r7, #24]

    if (iocurrent == ioposition)
 8000750:	69ba      	ldr	r2, [r7, #24]
 8000752:	69fb      	ldr	r3, [r7, #28]
 8000754:	429a      	cmp	r2, r3
 8000756:	f040 8150 	bne.w	80009fa <HAL_GPIO_Init+0x2d2>
    {
      /* Check the Alternate function parameters */
      assert_param(IS_GPIO_AF_INSTANCE(GPIOx));

      /* Based on the required mode, filling config variable with MODEy[1:0] and CNFy[3:2] corresponding bits */
      switch (GPIO_Init->Mode)
 800075a:	683b      	ldr	r3, [r7, #0]
 800075c:	685b      	ldr	r3, [r3, #4]
 800075e:	4a97      	ldr	r2, [pc, #604]	; (80009bc <HAL_GPIO_Init+0x294>)
 8000760:	4293      	cmp	r3, r2
 8000762:	d05e      	beq.n	8000822 <HAL_GPIO_Init+0xfa>
 8000764:	4a95      	ldr	r2, [pc, #596]	; (80009bc <HAL_GPIO_Init+0x294>)
 8000766:	4293      	cmp	r3, r2
 8000768:	d875      	bhi.n	8000856 <HAL_GPIO_Init+0x12e>
 800076a:	4a95      	ldr	r2, [pc, #596]	; (80009c0 <HAL_GPIO_Init+0x298>)
 800076c:	4293      	cmp	r3, r2
 800076e:	d058      	beq.n	8000822 <HAL_GPIO_Init+0xfa>
 8000770:	4a93      	ldr	r2, [pc, #588]	; (80009c0 <HAL_GPIO_Init+0x298>)
 8000772:	4293      	cmp	r3, r2
 8000774:	d86f      	bhi.n	8000856 <HAL_GPIO_Init+0x12e>
 8000776:	4a93      	ldr	r2, [pc, #588]	; (80009c4 <HAL_GPIO_Init+0x29c>)
 8000778:	4293      	cmp	r3, r2
 800077a:	d052      	beq.n	8000822 <HAL_GPIO_Init+0xfa>
 800077c:	4a91      	ldr	r2, [pc, #580]	; (80009c4 <HAL_GPIO_Init+0x29c>)
 800077e:	4293      	cmp	r3, r2
 8000780:	d869      	bhi.n	8000856 <HAL_GPIO_Init+0x12e>
 8000782:	4a91      	ldr	r2, [pc, #580]	; (80009c8 <HAL_GPIO_Init+0x2a0>)
 8000784:	4293      	cmp	r3, r2
 8000786:	d04c      	beq.n	8000822 <HAL_GPIO_Init+0xfa>
 8000788:	4a8f      	ldr	r2, [pc, #572]	; (80009c8 <HAL_GPIO_Init+0x2a0>)
 800078a:	4293      	cmp	r3, r2
 800078c:	d863      	bhi.n	8000856 <HAL_GPIO_Init+0x12e>
 800078e:	4a8f      	ldr	r2, [pc, #572]	; (80009cc <HAL_GPIO_Init+0x2a4>)
 8000790:	4293      	cmp	r3, r2
 8000792:	d046      	beq.n	8000822 <HAL_GPIO_Init+0xfa>
 8000794:	4a8d      	ldr	r2, [pc, #564]	; (80009cc <HAL_GPIO_Init+0x2a4>)
 8000796:	4293      	cmp	r3, r2
 8000798:	d85d      	bhi.n	8000856 <HAL_GPIO_Init+0x12e>
 800079a:	2b12      	cmp	r3, #18
 800079c:	d82a      	bhi.n	80007f4 <HAL_GPIO_Init+0xcc>
 800079e:	2b12      	cmp	r3, #18
 80007a0:	d859      	bhi.n	8000856 <HAL_GPIO_Init+0x12e>
 80007a2:	a201      	add	r2, pc, #4	; (adr r2, 80007a8 <HAL_GPIO_Init+0x80>)
 80007a4:	f852 f023 	ldr.w	pc, [r2, r3, lsl #2]
 80007a8:	08000823 	.word	0x08000823
 80007ac:	080007fd 	.word	0x080007fd
 80007b0:	0800080f 	.word	0x0800080f
 80007b4:	08000851 	.word	0x08000851
 80007b8:	08000857 	.word	0x08000857
 80007bc:	08000857 	.word	0x08000857
 80007c0:	08000857 	.word	0x08000857
 80007c4:	08000857 	.word	0x08000857
 80007c8:	08000857 	.word	0x08000857
 80007cc:	08000857 	.word	0x08000857
 80007d0:	08000857 	.word	0x08000857
 80007d4:	08000857 	.word	0x08000857
 80007d8:	08000857 	.word	0x08000857
 80007dc:	08000857 	.word	0x08000857
 80007e0:	08000857 	.word	0x08000857
 80007e4:	08000857 	.word	0x08000857
 80007e8:	08000857 	.word	0x08000857
 80007ec:	08000805 	.word	0x08000805
 80007f0:	08000819 	.word	0x08000819
 80007f4:	4a76      	ldr	r2, [pc, #472]	; (80009d0 <HAL_GPIO_Init+0x2a8>)
 80007f6:	4293      	cmp	r3, r2
 80007f8:	d013      	beq.n	8000822 <HAL_GPIO_Init+0xfa>
          config = GPIO_CR_MODE_INPUT + GPIO_CR_CNF_ANALOG;
          break;

        /* Parameters are checked with assert_param */
        default:
          break;
 80007fa:	e02c      	b.n	8000856 <HAL_GPIO_Init+0x12e>
          config = GPIO_Init->Speed + GPIO_CR_CNF_GP_OUTPUT_PP;
 80007fc:	683b      	ldr	r3, [r7, #0]
 80007fe:	68db      	ldr	r3, [r3, #12]
 8000800:	623b      	str	r3, [r7, #32]
          break;
 8000802:	e029      	b.n	8000858 <HAL_GPIO_Init+0x130>
          config = GPIO_Init->Speed + GPIO_CR_CNF_GP_OUTPUT_OD;
 8000804:	683b      	ldr	r3, [r7, #0]
 8000806:	68db      	ldr	r3, [r3, #12]
 8000808:	3304      	adds	r3, #4
 800080a:	623b      	str	r3, [r7, #32]
          break;
 800080c:	e024      	b.n	8000858 <HAL_GPIO_Init+0x130>
          config = GPIO_Init->Speed + GPIO_CR_CNF_AF_OUTPUT_PP;
 800080e:	683b      	ldr	r3, [r7, #0]
 8000810:	68db      	ldr	r3, [r3, #12]
 8000812:	3308      	adds	r3, #8
 8000814:	623b      	str	r3, [r7, #32]
          break;
 8000816:	e01f      	b.n	8000858 <HAL_GPIO_Init+0x130>
          config = GPIO_Init->Speed + GPIO_CR_CNF_AF_OUTPUT_OD;
 8000818:	683b      	ldr	r3, [r7, #0]
 800081a:	68db      	ldr	r3, [r3, #12]
 800081c:	330c      	adds	r3, #12
 800081e:	623b      	str	r3, [r7, #32]
          break;
 8000820:	e01a      	b.n	8000858 <HAL_GPIO_Init+0x130>
          if (GPIO_Init->Pull == GPIO_NOPULL)
 8000822:	683b      	ldr	r3, [r7, #0]
 8000824:	689b      	ldr	r3, [r3, #8]
 8000826:	2b00      	cmp	r3, #0
 8000828:	d102      	bne.n	8000830 <HAL_GPIO_Init+0x108>
            config = GPIO_CR_MODE_INPUT + GPIO_CR_CNF_INPUT_FLOATING;
 800082a:	2304      	movs	r3, #4
 800082c:	623b      	str	r3, [r7, #32]
          break;
 800082e:	e013      	b.n	8000858 <HAL_GPIO_Init+0x130>
          else if (GPIO_Init->Pull == GPIO_PULLUP)
 8000830:	683b      	ldr	r3, [r7, #0]
 8000832:	689b      	ldr	r3, [r3, #8]
 8000834:	2b01      	cmp	r3, #1
 8000836:	d105      	bne.n	8000844 <HAL_GPIO_Init+0x11c>
            config = GPIO_CR_MODE_INPUT + GPIO_CR_CNF_INPUT_PU_PD;
 8000838:	2308      	movs	r3, #8
 800083a:	623b      	str	r3, [r7, #32]
            GPIOx->BSRR = ioposition;
 800083c:	687b      	ldr	r3, [r7, #4]
 800083e:	69fa      	ldr	r2, [r7, #28]
 8000840:	611a      	str	r2, [r3, #16]
          break;
 8000842:	e009      	b.n	8000858 <HAL_GPIO_Init+0x130>
            config = GPIO_CR_MODE_INPUT + GPIO_CR_CNF_INPUT_PU_PD;
 8000844:	2308      	movs	r3, #8
 8000846:	623b      	str	r3, [r7, #32]
            GPIOx->BRR = ioposition;
 8000848:	687b      	ldr	r3, [r7, #4]
 800084a:	69fa      	ldr	r2, [r7, #28]
 800084c:	615a      	str	r2, [r3, #20]
          break;
 800084e:	e003      	b.n	8000858 <HAL_GPIO_Init+0x130>
          config = GPIO_CR_MODE_INPUT + GPIO_CR_CNF_ANALOG;
 8000850:	2300      	movs	r3, #0
 8000852:	623b      	str	r3, [r7, #32]
          break;
 8000854:	e000      	b.n	8000858 <HAL_GPIO_Init+0x130>
          break;
 8000856:	bf00      	nop
      }

      /* Check if the current bit belongs to first half or last half of the pin count number
       in order to address CRH or CRL register*/
      configregister = (iocurrent < GPIO_PIN_8) ? &GPIOx->CRL     : &GPIOx->CRH;
 8000858:	69bb      	ldr	r3, [r7, #24]
 800085a:	2bff      	cmp	r3, #255	; 0xff
 800085c:	d801      	bhi.n	8000862 <HAL_GPIO_Init+0x13a>
 800085e:	687b      	ldr	r3, [r7, #4]
 8000860:	e001      	b.n	8000866 <HAL_GPIO_Init+0x13e>
 8000862:	687b      	ldr	r3, [r7, #4]
 8000864:	3304      	adds	r3, #4
 8000866:	617b      	str	r3, [r7, #20]
      registeroffset = (iocurrent < GPIO_PIN_8) ? (position << 2u) : ((position - 8u) << 2u);
 8000868:	69bb      	ldr	r3, [r7, #24]
 800086a:	2bff      	cmp	r3, #255	; 0xff
 800086c:	d802      	bhi.n	8000874 <HAL_GPIO_Init+0x14c>
 800086e:	6a7b      	ldr	r3, [r7, #36]	; 0x24
 8000870:	009b      	lsls	r3, r3, #2
 8000872:	e002      	b.n	800087a <HAL_GPIO_Init+0x152>
 8000874:	6a7b      	ldr	r3, [r7, #36]	; 0x24
 8000876:	3b08      	subs	r3, #8
 8000878:	009b      	lsls	r3, r3, #2
 800087a:	613b      	str	r3, [r7, #16]

      /* Apply the new configuration of the pin to the register */
      MODIFY_REG((*configregister), ((GPIO_CRL_MODE0 | GPIO_CRL_CNF0) << registeroffset), (config << registeroffset));
 800087c:	697b      	ldr	r3, [r7, #20]
 800087e:	681a      	ldr	r2, [r3, #0]
 8000880:	210f      	movs	r1, #15
 8000882:	693b      	ldr	r3, [r7, #16]
 8000884:	fa01 f303 	lsl.w	r3, r1, r3
 8000888:	43db      	mvns	r3, r3
 800088a:	401a      	ands	r2, r3
 800088c:	6a39      	ldr	r1, [r7, #32]
 800088e:	693b      	ldr	r3, [r7, #16]
 8000890:	fa01 f303 	lsl.w	r3, r1, r3
 8000894:	431a      	orrs	r2, r3
 8000896:	697b      	ldr	r3, [r7, #20]
 8000898:	601a      	str	r2, [r3, #0]

      /*--------------------- EXTI Mode Configuration ------------------------*/
      /* Configure the External Interrupt or event for the current IO */
      if ((GPIO_Init->Mode & EXTI_MODE) == EXTI_MODE)
 800089a:	683b      	ldr	r3, [r7, #0]
 800089c:	685b      	ldr	r3, [r3, #4]
 800089e:	f003 5380 	and.w	r3, r3, #268435456	; 0x10000000
 80008a2:	2b00      	cmp	r3, #0
 80008a4:	f000 80a9 	beq.w	80009fa <HAL_GPIO_Init+0x2d2>
      {
        /* Enable AFIO Clock */
        __HAL_RCC_AFIO_CLK_ENABLE();
 80008a8:	4b4a      	ldr	r3, [pc, #296]	; (80009d4 <HAL_GPIO_Init+0x2ac>)
 80008aa:	699b      	ldr	r3, [r3, #24]
 80008ac:	4a49      	ldr	r2, [pc, #292]	; (80009d4 <HAL_GPIO_Init+0x2ac>)
 80008ae:	f043 0301 	orr.w	r3, r3, #1
 80008b2:	6193      	str	r3, [r2, #24]
 80008b4:	4b47      	ldr	r3, [pc, #284]	; (80009d4 <HAL_GPIO_Init+0x2ac>)
 80008b6:	699b      	ldr	r3, [r3, #24]
 80008b8:	f003 0301 	and.w	r3, r3, #1
 80008bc:	60bb      	str	r3, [r7, #8]
 80008be:	68bb      	ldr	r3, [r7, #8]
        temp = AFIO->EXTICR[position >> 2u];
 80008c0:	4a45      	ldr	r2, [pc, #276]	; (80009d8 <HAL_GPIO_Init+0x2b0>)
 80008c2:	6a7b      	ldr	r3, [r7, #36]	; 0x24
 80008c4:	089b      	lsrs	r3, r3, #2
 80008c6:	3302      	adds	r3, #2
 80008c8:	f852 3023 	ldr.w	r3, [r2, r3, lsl #2]
 80008cc:	60fb      	str	r3, [r7, #12]
        CLEAR_BIT(temp, (0x0Fu) << (4u * (position & 0x03u)));
 80008ce:	6a7b      	ldr	r3, [r7, #36]	; 0x24
 80008d0:	f003 0303 	and.w	r3, r3, #3
 80008d4:	009b      	lsls	r3, r3, #2
 80008d6:	220f      	movs	r2, #15
 80008d8:	fa02 f303 	lsl.w	r3, r2, r3
 80008dc:	43db      	mvns	r3, r3
 80008de:	68fa      	ldr	r2, [r7, #12]
 80008e0:	4013      	ands	r3, r2
 80008e2:	60fb      	str	r3, [r7, #12]
        SET_BIT(temp, (GPIO_GET_INDEX(GPIOx)) << (4u * (position & 0x03u)));
 80008e4:	687b      	ldr	r3, [r7, #4]
 80008e6:	4a3d      	ldr	r2, [pc, #244]	; (80009dc <HAL_GPIO_Init+0x2b4>)
 80008e8:	4293      	cmp	r3, r2
 80008ea:	d00d      	beq.n	8000908 <HAL_GPIO_Init+0x1e0>
 80008ec:	687b      	ldr	r3, [r7, #4]
 80008ee:	4a3c      	ldr	r2, [pc, #240]	; (80009e0 <HAL_GPIO_Init+0x2b8>)
 80008f0:	4293      	cmp	r3, r2
 80008f2:	d007      	beq.n	8000904 <HAL_GPIO_Init+0x1dc>
 80008f4:	687b      	ldr	r3, [r7, #4]
 80008f6:	4a3b      	ldr	r2, [pc, #236]	; (80009e4 <HAL_GPIO_Init+0x2bc>)
 80008f8:	4293      	cmp	r3, r2
 80008fa:	d101      	bne.n	8000900 <HAL_GPIO_Init+0x1d8>
 80008fc:	2302      	movs	r3, #2
 80008fe:	e004      	b.n	800090a <HAL_GPIO_Init+0x1e2>
 8000900:	2303      	movs	r3, #3
 8000902:	e002      	b.n	800090a <HAL_GPIO_Init+0x1e2>
 8000904:	2301      	movs	r3, #1
 8000906:	e000      	b.n	800090a <HAL_GPIO_Init+0x1e2>
 8000908:	2300      	movs	r3, #0
 800090a:	6a7a      	ldr	r2, [r7, #36]	; 0x24
 800090c:	f002 0203 	and.w	r2, r2, #3
 8000910:	0092      	lsls	r2, r2, #2
 8000912:	4093      	lsls	r3, r2
 8000914:	68fa      	ldr	r2, [r7, #12]
 8000916:	4313      	orrs	r3, r2
 8000918:	60fb      	str	r3, [r7, #12]
        AFIO->EXTICR[position >> 2u] = temp;
 800091a:	492f      	ldr	r1, [pc, #188]	; (80009d8 <HAL_GPIO_Init+0x2b0>)
 800091c:	6a7b      	ldr	r3, [r7, #36]	; 0x24
 800091e:	089b      	lsrs	r3, r3, #2
 8000920:	3302      	adds	r3, #2
 8000922:	68fa      	ldr	r2, [r7, #12]
 8000924:	f841 2023 	str.w	r2, [r1, r3, lsl #2]


        /* Enable or disable the rising trigger */
        if ((GPIO_Init->Mode & RISING_EDGE) == RISING_EDGE)
 8000928:	683b      	ldr	r3, [r7, #0]
 800092a:	685b      	ldr	r3, [r3, #4]
 800092c:	f403 1380 	and.w	r3, r3, #1048576	; 0x100000
 8000930:	2b00      	cmp	r3, #0
 8000932:	d006      	beq.n	8000942 <HAL_GPIO_Init+0x21a>
        {
          SET_BIT(EXTI->RTSR, iocurrent);
 8000934:	4b2c      	ldr	r3, [pc, #176]	; (80009e8 <HAL_GPIO_Init+0x2c0>)
 8000936:	689a      	ldr	r2, [r3, #8]
 8000938:	492b      	ldr	r1, [pc, #172]	; (80009e8 <HAL_GPIO_Init+0x2c0>)
 800093a:	69bb      	ldr	r3, [r7, #24]
 800093c:	4313      	orrs	r3, r2
 800093e:	608b      	str	r3, [r1, #8]
 8000940:	e006      	b.n	8000950 <HAL_GPIO_Init+0x228>
        }
        else
        {
          CLEAR_BIT(EXTI->RTSR, iocurrent);
 8000942:	4b29      	ldr	r3, [pc, #164]	; (80009e8 <HAL_GPIO_Init+0x2c0>)
 8000944:	689a      	ldr	r2, [r3, #8]
 8000946:	69bb      	ldr	r3, [r7, #24]
 8000948:	43db      	mvns	r3, r3
 800094a:	4927      	ldr	r1, [pc, #156]	; (80009e8 <HAL_GPIO_Init+0x2c0>)
 800094c:	4013      	ands	r3, r2
 800094e:	608b      	str	r3, [r1, #8]
        }

        /* Enable or disable the falling trigger */
        if ((GPIO_Init->Mode & FALLING_EDGE) == FALLING_EDGE)
 8000950:	683b      	ldr	r3, [r7, #0]
 8000952:	685b      	ldr	r3, [r3, #4]
 8000954:	f403 1300 	and.w	r3, r3, #2097152	; 0x200000
 8000958:	2b00      	cmp	r3, #0
 800095a:	d006      	beq.n	800096a <HAL_GPIO_Init+0x242>
        {
          SET_BIT(EXTI->FTSR, iocurrent);
 800095c:	4b22      	ldr	r3, [pc, #136]	; (80009e8 <HAL_GPIO_Init+0x2c0>)
 800095e:	68da      	ldr	r2, [r3, #12]
 8000960:	4921      	ldr	r1, [pc, #132]	; (80009e8 <HAL_GPIO_Init+0x2c0>)
 8000962:	69bb      	ldr	r3, [r7, #24]
 8000964:	4313      	orrs	r3, r2
 8000966:	60cb      	str	r3, [r1, #12]
 8000968:	e006      	b.n	8000978 <HAL_GPIO_Init+0x250>
        }
        else
        {
          CLEAR_BIT(EXTI->FTSR, iocurrent);
 800096a:	4b1f      	ldr	r3, [pc, #124]	; (80009e8 <HAL_GPIO_Init+0x2c0>)
 800096c:	68da      	ldr	r2, [r3, #12]
 800096e:	69bb      	ldr	r3, [r7, #24]
 8000970:	43db      	mvns	r3, r3
 8000972:	491d      	ldr	r1, [pc, #116]	; (80009e8 <HAL_GPIO_Init+0x2c0>)
 8000974:	4013      	ands	r3, r2
 8000976:	60cb      	str	r3, [r1, #12]
        }

        /* Configure the event mask */
        if ((GPIO_Init->Mode & GPIO_MODE_EVT) == GPIO_MODE_EVT)
 8000978:	683b      	ldr	r3, [r7, #0]
 800097a:	685b      	ldr	r3, [r3, #4]
 800097c:	f403 3300 	and.w	r3, r3, #131072	; 0x20000
 8000980:	2b00      	cmp	r3, #0
 8000982:	d006      	beq.n	8000992 <HAL_GPIO_Init+0x26a>
        {
          SET_BIT(EXTI->EMR, iocurrent);
 8000984:	4b18      	ldr	r3, [pc, #96]	; (80009e8 <HAL_GPIO_Init+0x2c0>)
 8000986:	685a      	ldr	r2, [r3, #4]
 8000988:	4917      	ldr	r1, [pc, #92]	; (80009e8 <HAL_GPIO_Init+0x2c0>)
 800098a:	69bb      	ldr	r3, [r7, #24]
 800098c:	4313      	orrs	r3, r2
 800098e:	604b      	str	r3, [r1, #4]
 8000990:	e006      	b.n	80009a0 <HAL_GPIO_Init+0x278>
        }
        else
        {
          CLEAR_BIT(EXTI->EMR, iocurrent);
 8000992:	4b15      	ldr	r3, [pc, #84]	; (80009e8 <HAL_GPIO_Init+0x2c0>)
 8000994:	685a      	ldr	r2, [r3, #4]
 8000996:	69bb      	ldr	r3, [r7, #24]
 8000998:	43db      	mvns	r3, r3
 800099a:	4913      	ldr	r1, [pc, #76]	; (80009e8 <HAL_GPIO_Init+0x2c0>)
 800099c:	4013      	ands	r3, r2
 800099e:	604b      	str	r3, [r1, #4]
        }

        /* Configure the interrupt mask */
        if ((GPIO_Init->Mode & GPIO_MODE_IT) == GPIO_MODE_IT)
 80009a0:	683b      	ldr	r3, [r7, #0]
 80009a2:	685b      	ldr	r3, [r3, #4]
 80009a4:	f403 3380 	and.w	r3, r3, #65536	; 0x10000
 80009a8:	2b00      	cmp	r3, #0
 80009aa:	d01f      	beq.n	80009ec <HAL_GPIO_Init+0x2c4>
        {
          SET_BIT(EXTI->IMR, iocurrent);
 80009ac:	4b0e      	ldr	r3, [pc, #56]	; (80009e8 <HAL_GPIO_Init+0x2c0>)
 80009ae:	681a      	ldr	r2, [r3, #0]
 80009b0:	490d      	ldr	r1, [pc, #52]	; (80009e8 <HAL_GPIO_Init+0x2c0>)
 80009b2:	69bb      	ldr	r3, [r7, #24]
 80009b4:	4313      	orrs	r3, r2
 80009b6:	600b      	str	r3, [r1, #0]
 80009b8:	e01f      	b.n	80009fa <HAL_GPIO_Init+0x2d2>
 80009ba:	bf00      	nop
 80009bc:	10320000 	.word	0x10320000
 80009c0:	10310000 	.word	0x10310000
 80009c4:	10220000 	.word	0x10220000
 80009c8:	10210000 	.word	0x10210000
 80009cc:	10120000 	.word	0x10120000
 80009d0:	10110000 	.word	0x10110000
 80009d4:	40021000 	.word	0x40021000
 80009d8:	40010000 	.word	0x40010000
 80009dc:	40010800 	.word	0x40010800
 80009e0:	40010c00 	.word	0x40010c00
 80009e4:	40011000 	.word	0x40011000
 80009e8:	40010400 	.word	0x40010400
        }
        else
        {
          CLEAR_BIT(EXTI->IMR, iocurrent);
 80009ec:	4b0b      	ldr	r3, [pc, #44]	; (8000a1c <HAL_GPIO_Init+0x2f4>)
 80009ee:	681a      	ldr	r2, [r3, #0]
 80009f0:	69bb      	ldr	r3, [r7, #24]
 80009f2:	43db      	mvns	r3, r3
 80009f4:	4909      	ldr	r1, [pc, #36]	; (8000a1c <HAL_GPIO_Init+0x2f4>)
 80009f6:	4013      	ands	r3, r2
 80009f8:	600b      	str	r3, [r1, #0]
        }
      }
    }

	position++;
 80009fa:	6a7b      	ldr	r3, [r7, #36]	; 0x24
 80009fc:	3301      	adds	r3, #1
 80009fe:	627b      	str	r3, [r7, #36]	; 0x24
  while (((GPIO_Init->Pin) >> position) != 0x00u)
 8000a00:	683b      	ldr	r3, [r7, #0]
 8000a02:	681a      	ldr	r2, [r3, #0]
 8000a04:	6a7b      	ldr	r3, [r7, #36]	; 0x24
 8000a06:	fa22 f303 	lsr.w	r3, r2, r3
 8000a0a:	2b00      	cmp	r3, #0
 8000a0c:	f47f ae96 	bne.w	800073c <HAL_GPIO_Init+0x14>
  }
}
 8000a10:	bf00      	nop
 8000a12:	bf00      	nop
 8000a14:	372c      	adds	r7, #44	; 0x2c
 8000a16:	46bd      	mov	sp, r7
 8000a18:	bc80      	pop	{r7}
 8000a1a:	4770      	bx	lr
 8000a1c:	40010400 	.word	0x40010400

08000a20 <HAL_GPIO_WritePin>:
  *            @arg GPIO_PIN_RESET: to clear the port pin
  *            @arg GPIO_PIN_SET: to set the port pin
  * @retval None
  */
void HAL_GPIO_WritePin(GPIO_TypeDef *GPIOx, uint16_t GPIO_Pin, GPIO_PinState PinState)
{
 8000a20:	b480      	push	{r7}
 8000a22:	b083      	sub	sp, #12
 8000a24:	af00      	add	r7, sp, #0
 8000a26:	6078      	str	r0, [r7, #4]
 8000a28:	460b      	mov	r3, r1
 8000a2a:	807b      	strh	r3, [r7, #2]
 8000a2c:	4613      	mov	r3, r2
 8000a2e:	707b      	strb	r3, [r7, #1]
  /* Check the parameters */
  assert_param(IS_GPIO_PIN(GPIO_Pin));
  assert_param(IS_GPIO_PIN_ACTION(PinState));

  if (PinState != GPIO_PIN_RESET)
 8000a30:	787b      	ldrb	r3, [r7, #1]
 8000a32:	2b00      	cmp	r3, #0
 8000a34:	d003      	beq.n	8000a3e <HAL_GPIO_WritePin+0x1e>
  {
    GPIOx->BSRR = GPIO_Pin;
 8000a36:	887a      	ldrh	r2, [r7, #2]
 8000a38:	687b      	ldr	r3, [r7, #4]
 8000a3a:	611a      	str	r2, [r3, #16]
  }
  else
  {
    GPIOx->BSRR = (uint32_t)GPIO_Pin << 16u;
  }
}
 8000a3c:	e003      	b.n	8000a46 <HAL_GPIO_WritePin+0x26>
    GPIOx->BSRR = (uint32_t)GPIO_Pin << 16u;
 8000a3e:	887b      	ldrh	r3, [r7, #2]
 8000a40:	041a      	lsls	r2, r3, #16
 8000a42:	687b      	ldr	r3, [r7, #4]
 8000a44:	611a      	str	r2, [r3, #16]
}
 8000a46:	bf00      	nop
 8000a48:	370c      	adds	r7, #12
 8000a4a:	46bd      	mov	sp, r7
 8000a4c:	bc80      	pop	{r7}
 8000a4e:	4770      	bx	lr

08000a50 <HAL_RCC_OscConfig>:
  *         supported by this macro. User should request a transition to HSE Off
  *         first and then HSE On or HSE Bypass.
  * @retval HAL status
  */
HAL_StatusTypeDef HAL_RCC_OscConfig(RCC_OscInitTypeDef  *RCC_OscInitStruct)
{
 8000a50:	b580      	push	{r7, lr}
 8000a52:	b086      	sub	sp, #24
 8000a54:	af00      	add	r7, sp, #0
 8000a56:	6078      	str	r0, [r7, #4]
  uint32_t tickstart;
  uint32_t pll_config;

  /* Check Null pointer */
  if (RCC_OscInitStruct == NULL)
 8000a58:	687b      	ldr	r3, [r7, #4]
 8000a5a:	2b00      	cmp	r3, #0
 8000a5c:	d101      	bne.n	8000a62 <HAL_RCC_OscConfig+0x12>
  {
    return HAL_ERROR;
 8000a5e:	2301      	movs	r3, #1
 8000a60:	e272      	b.n	8000f48 <HAL_RCC_OscConfig+0x4f8>

  /* Check the parameters */
  assert_param(IS_RCC_OSCILLATORTYPE(RCC_OscInitStruct->OscillatorType));

  /*------------------------------- HSE Configuration ------------------------*/
  if (((RCC_OscInitStruct->OscillatorType) & RCC_OSCILLATORTYPE_HSE) == RCC_OSCILLATORTYPE_HSE)
 8000a62:	687b      	ldr	r3, [r7, #4]
 8000a64:	681b      	ldr	r3, [r3, #0]
 8000a66:	f003 0301 	and.w	r3, r3, #1
 8000a6a:	2b00      	cmp	r3, #0
 8000a6c:	f000 8087 	beq.w	8000b7e <HAL_RCC_OscConfig+0x12e>
  {
    /* Check the parameters */
    assert_param(IS_RCC_HSE(RCC_OscInitStruct->HSEState));

    /* When the HSE is used as system clock or clock source for PLL in these cases it is not allowed to be disabled */
    if ((__HAL_RCC_GET_SYSCLK_SOURCE() == RCC_SYSCLKSOURCE_STATUS_HSE)
 8000a70:	4b92      	ldr	r3, [pc, #584]	; (8000cbc <HAL_RCC_OscConfig+0x26c>)
 8000a72:	685b      	ldr	r3, [r3, #4]
 8000a74:	f003 030c 	and.w	r3, r3, #12
 8000a78:	2b04      	cmp	r3, #4
 8000a7a:	d00c      	beq.n	8000a96 <HAL_RCC_OscConfig+0x46>
        || ((__HAL_RCC_GET_SYSCLK_SOURCE() == RCC_SYSCLKSOURCE_STATUS_PLLCLK) && (__HAL_RCC_GET_PLL_OSCSOURCE() == RCC_PLLSOURCE_HSE)))
 8000a7c:	4b8f      	ldr	r3, [pc, #572]	; (8000cbc <HAL_RCC_OscConfig+0x26c>)
 8000a7e:	685b      	ldr	r3, [r3, #4]
 8000a80:	f003 030c 	and.w	r3, r3, #12
 8000a84:	2b08      	cmp	r3, #8
 8000a86:	d112      	bne.n	8000aae <HAL_RCC_OscConfig+0x5e>
 8000a88:	4b8c      	ldr	r3, [pc, #560]	; (8000cbc <HAL_RCC_OscConfig+0x26c>)
 8000a8a:	685b      	ldr	r3, [r3, #4]
 8000a8c:	f403 3380 	and.w	r3, r3, #65536	; 0x10000
 8000a90:	f5b3 3f80 	cmp.w	r3, #65536	; 0x10000
 8000a94:	d10b      	bne.n	8000aae <HAL_RCC_OscConfig+0x5e>
    {
      if ((__HAL_RCC_GET_FLAG(RCC_FLAG_HSERDY) != RESET) && (RCC_OscInitStruct->HSEState == RCC_HSE_OFF))
 8000a96:	4b89      	ldr	r3, [pc, #548]	; (8000cbc <HAL_RCC_OscConfig+0x26c>)
 8000a98:	681b      	ldr	r3, [r3, #0]
 8000a9a:	f403 3300 	and.w	r3, r3, #131072	; 0x20000
 8000a9e:	2b00      	cmp	r3, #0
 8000aa0:	d06c      	beq.n	8000b7c <HAL_RCC_OscConfig+0x12c>
 8000aa2:	687b      	ldr	r3, [r7, #4]
 8000aa4:	685b      	ldr	r3, [r3, #4]
 8000aa6:	2b00      	cmp	r3, #0
 8000aa8:	d168      	bne.n	8000b7c <HAL_RCC_OscConfig+0x12c>
      {
        return HAL_ERROR;
 8000aaa:	2301      	movs	r3, #1
 8000aac:	e24c      	b.n	8000f48 <HAL_RCC_OscConfig+0x4f8>
      }
    }
    else
    {
      /* Set the new HSE configuration ---------------------------------------*/
      __HAL_RCC_HSE_CONFIG(RCC_OscInitStruct->HSEState);
 8000aae:	687b      	ldr	r3, [r7, #4]
 8000ab0:	685b      	ldr	r3, [r3, #4]
 8000ab2:	f5b3 3f80 	cmp.w	r3, #65536	; 0x10000
 8000ab6:	d106      	bne.n	8000ac6 <HAL_RCC_OscConfig+0x76>
 8000ab8:	4b80      	ldr	r3, [pc, #512]	; (8000cbc <HAL_RCC_OscConfig+0x26c>)
 8000aba:	681b      	ldr	r3, [r3, #0]
 8000abc:	4a7f      	ldr	r2, [pc, #508]	; (8000cbc <HAL_RCC_OscConfig+0x26c>)
 8000abe:	f443 3380 	orr.w	r3, r3, #65536	; 0x10000
 8000ac2:	6013      	str	r3, [r2, #0]
 8000ac4:	e02e      	b.n	8000b24 <HAL_RCC_OscConfig+0xd4>
 8000ac6:	687b      	ldr	r3, [r7, #4]
 8000ac8:	685b      	ldr	r3, [r3, #4]
 8000aca:	2b00      	cmp	r3, #0
 8000acc:	d10c      	bne.n	8000ae8 <HAL_RCC_OscConfig+0x98>
 8000ace:	4b7b      	ldr	r3, [pc, #492]	; (8000cbc <HAL_RCC_OscConfig+0x26c>)
 8000ad0:	681b      	ldr	r3, [r3, #0]
 8000ad2:	4a7a      	ldr	r2, [pc, #488]	; (8000cbc <HAL_RCC_OscConfig+0x26c>)
 8000ad4:	f423 3380 	bic.w	r3, r3, #65536	; 0x10000
 8000ad8:	6013      	str	r3, [r2, #0]
 8000ada:	4b78      	ldr	r3, [pc, #480]	; (8000cbc <HAL_RCC_OscConfig+0x26c>)
 8000adc:	681b      	ldr	r3, [r3, #0]
 8000ade:	4a77      	ldr	r2, [pc, #476]	; (8000cbc <HAL_RCC_OscConfig+0x26c>)
 8000ae0:	f423 2380 	bic.w	r3, r3, #262144	; 0x40000
 8000ae4:	6013      	str	r3, [r2, #0]
 8000ae6:	e01d      	b.n	8000b24 <HAL_RCC_OscConfig+0xd4>
 8000ae8:	687b      	ldr	r3, [r7, #4]
 8000aea:	685b      	ldr	r3, [r3, #4]
 8000aec:	f5b3 2fa0 	cmp.w	r3, #327680	; 0x50000
 8000af0:	d10c      	bne.n	8000b0c <HAL_RCC_OscConfig+0xbc>
 8000af2:	4b72      	ldr	r3, [pc, #456]	; (8000cbc <HAL_RCC_OscConfig+0x26c>)
 8000af4:	681b      	ldr	r3, [r3, #0]
 8000af6:	4a71      	ldr	r2, [pc, #452]	; (8000cbc <HAL_RCC_OscConfig+0x26c>)
 8000af8:	f443 2380 	orr.w	r3, r3, #262144	; 0x40000
 8000afc:	6013      	str	r3, [r2, #0]
 8000afe:	4b6f      	ldr	r3, [pc, #444]	; (8000cbc <HAL_RCC_OscConfig+0x26c>)
 8000b00:	681b      	ldr	r3, [r3, #0]
 8000b02:	4a6e      	ldr	r2, [pc, #440]	; (8000cbc <HAL_RCC_OscConfig+0x26c>)
 8000b04:	f443 3380 	orr.w	r3, r3, #65536	; 0x10000
 8000b08:	6013      	str	r3, [r2, #0]
 8000b0a:	e00b      	b.n	8000b24 <HAL_RCC_OscConfig+0xd4>
 8000b0c:	4b6b      	ldr	r3, [pc, #428]	; (8000cbc <HAL_RCC_OscConfig+0x26c>)
 8000b0e:	681b      	ldr	r3, [r3, #0]
 8000b10:	4a6a      	ldr	r2, [pc, #424]	; (8000cbc <HAL_RCC_OscConfig+0x26c>)
 8000b12:	f423 3380 	bic.w	r3, r3, #65536	; 0x10000
 8000b16:	6013      	str	r3, [r2, #0]
 8000b18:	4b68      	ldr	r3, [pc, #416]	; (8000cbc <HAL_RCC_OscConfig+0x26c>)
 8000b1a:	681b      	ldr	r3, [r3, #0]
 8000b1c:	4a67      	ldr	r2, [pc, #412]	; (8000cbc <HAL_RCC_OscConfig+0x26c>)
 8000b1e:	f423 2380 	bic.w	r3, r3, #262144	; 0x40000
 8000b22:	6013      	str	r3, [r2, #0]


      /* Check the HSE State */
      if (RCC_OscInitStruct->HSEState != RCC_HSE_OFF)
 8000b24:	687b      	ldr	r3, [r7, #4]
 8000b26:	685b      	ldr	r3, [r3, #4]
 8000b28:	2b00      	cmp	r3, #0
 8000b2a:	d013      	beq.n	8000b54 <HAL_RCC_OscConfig+0x104>
      {
        /* Get Start Tick */
        tickstart = HAL_GetTick();
 8000b2c:	f7ff fce4 	bl	80004f8 <HAL_GetTick>
 8000b30:	6138      	str	r0, [r7, #16]

        /* Wait till HSE is ready */
        while (__HAL_RCC_GET_FLAG(RCC_FLAG_HSERDY) == RESET)
 8000b32:	e008      	b.n	8000b46 <HAL_RCC_OscConfig+0xf6>
        {
          if ((HAL_GetTick() - tickstart) > HSE_TIMEOUT_VALUE)
 8000b34:	f7ff fce0 	bl	80004f8 <HAL_GetTick>
 8000b38:	4602      	mov	r2, r0
 8000b3a:	693b      	ldr	r3, [r7, #16]
 8000b3c:	1ad3      	subs	r3, r2, r3
 8000b3e:	2b64      	cmp	r3, #100	; 0x64
 8000b40:	d901      	bls.n	8000b46 <HAL_RCC_OscConfig+0xf6>
          {
            return HAL_TIMEOUT;
 8000b42:	2303      	movs	r3, #3
 8000b44:	e200      	b.n	8000f48 <HAL_RCC_OscConfig+0x4f8>
        while (__HAL_RCC_GET_FLAG(RCC_FLAG_HSERDY) == RESET)
 8000b46:	4b5d      	ldr	r3, [pc, #372]	; (8000cbc <HAL_RCC_OscConfig+0x26c>)
 8000b48:	681b      	ldr	r3, [r3, #0]
 8000b4a:	f403 3300 	and.w	r3, r3, #131072	; 0x20000
 8000b4e:	2b00      	cmp	r3, #0
 8000b50:	d0f0      	beq.n	8000b34 <HAL_RCC_OscConfig+0xe4>
 8000b52:	e014      	b.n	8000b7e <HAL_RCC_OscConfig+0x12e>
        }
      }
      else
      {
        /* Get Start Tick */
        tickstart = HAL_GetTick();
 8000b54:	f7ff fcd0 	bl	80004f8 <HAL_GetTick>
 8000b58:	6138      	str	r0, [r7, #16]

        /* Wait till HSE is disabled */
        while (__HAL_RCC_GET_FLAG(RCC_FLAG_HSERDY) != RESET)
 8000b5a:	e008      	b.n	8000b6e <HAL_RCC_OscConfig+0x11e>
        {
          if ((HAL_GetTick() - tickstart) > HSE_TIMEOUT_VALUE)
 8000b5c:	f7ff fccc 	bl	80004f8 <HAL_GetTick>
 8000b60:	4602      	mov	r2, r0
 8000b62:	693b      	ldr	r3, [r7, #16]
 8000b64:	1ad3      	subs	r3, r2, r3
 8000b66:	2b64      	cmp	r3, #100	; 0x64
 8000b68:	d901      	bls.n	8000b6e <HAL_RCC_OscConfig+0x11e>
          {
            return HAL_TIMEOUT;
 8000b6a:	2303      	movs	r3, #3
 8000b6c:	e1ec      	b.n	8000f48 <HAL_RCC_OscConfig+0x4f8>
        while (__HAL_RCC_GET_FLAG(RCC_FLAG_HSERDY) != RESET)
 8000b6e:	4b53      	ldr	r3, [pc, #332]	; (8000cbc <HAL_RCC_OscConfig+0x26c>)
 8000b70:	681b      	ldr	r3, [r3, #0]
 8000b72:	f403 3300 	and.w	r3, r3, #131072	; 0x20000
 8000b76:	2b00      	cmp	r3, #0
 8000b78:	d1f0      	bne.n	8000b5c <HAL_RCC_OscConfig+0x10c>
 8000b7a:	e000      	b.n	8000b7e <HAL_RCC_OscConfig+0x12e>
      if ((__HAL_RCC_GET_FLAG(RCC_FLAG_HSERDY) != RESET) && (RCC_OscInitStruct->HSEState == RCC_HSE_OFF))
 8000b7c:	bf00      	nop
        }
      }
    }
  }
  /*----------------------------- HSI Configuration --------------------------*/
  if (((RCC_OscInitStruct->OscillatorType) & RCC_OSCILLATORTYPE_HSI) == RCC_OSCILLATORTYPE_HSI)
 8000b7e:	687b      	ldr	r3, [r7, #4]
 8000b80:	681b      	ldr	r3, [r3, #0]
 8000b82:	f003 0302 	and.w	r3, r3, #2
 8000b86:	2b00      	cmp	r3, #0
 8000b88:	d063      	beq.n	8000c52 <HAL_RCC_OscConfig+0x202>
    /* Check the parameters */
    assert_param(IS_RCC_HSI(RCC_OscInitStruct->HSIState));
    assert_param(IS_RCC_CALIBRATION_VALUE(RCC_OscInitStruct->HSICalibrationValue));

    /* Check if HSI is used as system clock or as PLL source when PLL is selected as system clock */
    if ((__HAL_RCC_GET_SYSCLK_SOURCE() == RCC_SYSCLKSOURCE_STATUS_HSI)
 8000b8a:	4b4c      	ldr	r3, [pc, #304]	; (8000cbc <HAL_RCC_OscConfig+0x26c>)
 8000b8c:	685b      	ldr	r3, [r3, #4]
 8000b8e:	f003 030c 	and.w	r3, r3, #12
 8000b92:	2b00      	cmp	r3, #0
 8000b94:	d00b      	beq.n	8000bae <HAL_RCC_OscConfig+0x15e>
        || ((__HAL_RCC_GET_SYSCLK_SOURCE() == RCC_SYSCLKSOURCE_STATUS_PLLCLK) && (__HAL_RCC_GET_PLL_OSCSOURCE() == RCC_PLLSOURCE_HSI_DIV2)))
 8000b96:	4b49      	ldr	r3, [pc, #292]	; (8000cbc <HAL_RCC_OscConfig+0x26c>)
 8000b98:	685b      	ldr	r3, [r3, #4]
 8000b9a:	f003 030c 	and.w	r3, r3, #12
 8000b9e:	2b08      	cmp	r3, #8
 8000ba0:	d11c      	bne.n	8000bdc <HAL_RCC_OscConfig+0x18c>
 8000ba2:	4b46      	ldr	r3, [pc, #280]	; (8000cbc <HAL_RCC_OscConfig+0x26c>)
 8000ba4:	685b      	ldr	r3, [r3, #4]
 8000ba6:	f403 3380 	and.w	r3, r3, #65536	; 0x10000
 8000baa:	2b00      	cmp	r3, #0
 8000bac:	d116      	bne.n	8000bdc <HAL_RCC_OscConfig+0x18c>
    {
      /* When HSI is used as system clock it will not disabled */
      if ((__HAL_RCC_GET_FLAG(RCC_FLAG_HSIRDY) != RESET) && (RCC_OscInitStruct->HSIState != RCC_HSI_ON))
 8000bae:	4b43      	ldr	r3, [pc, #268]	; (8000cbc <HAL_RCC_OscConfig+0x26c>)
 8000bb0:	681b      	ldr	r3, [r3, #0]
 8000bb2:	f003 0302 	and.w	r3, r3, #2
 8000bb6:	2b00      	cmp	r3, #0
 8000bb8:	d005      	beq.n	8000bc6 <HAL_RCC_OscConfig+0x176>
 8000bba:	687b      	ldr	r3, [r7, #4]
 8000bbc:	691b      	ldr	r3, [r3, #16]
 8000bbe:	2b01      	cmp	r3, #1
 8000bc0:	d001      	beq.n	8000bc6 <HAL_RCC_OscConfig+0x176>
      {
        return HAL_ERROR;
 8000bc2:	2301      	movs	r3, #1
 8000bc4:	e1c0      	b.n	8000f48 <HAL_RCC_OscConfig+0x4f8>
      }
      /* Otherwise, just the calibration is allowed */
      else
      {
        /* Adjusts the Internal High Speed oscillator (HSI) calibration value.*/
        __HAL_RCC_HSI_CALIBRATIONVALUE_ADJUST(RCC_OscInitStruct->HSICalibrationValue);
 8000bc6:	4b3d      	ldr	r3, [pc, #244]	; (8000cbc <HAL_RCC_OscConfig+0x26c>)
 8000bc8:	681b      	ldr	r3, [r3, #0]
 8000bca:	f023 02f8 	bic.w	r2, r3, #248	; 0xf8
 8000bce:	687b      	ldr	r3, [r7, #4]
 8000bd0:	695b      	ldr	r3, [r3, #20]
 8000bd2:	00db      	lsls	r3, r3, #3
 8000bd4:	4939      	ldr	r1, [pc, #228]	; (8000cbc <HAL_RCC_OscConfig+0x26c>)
 8000bd6:	4313      	orrs	r3, r2
 8000bd8:	600b      	str	r3, [r1, #0]
      if ((__HAL_RCC_GET_FLAG(RCC_FLAG_HSIRDY) != RESET) && (RCC_OscInitStruct->HSIState != RCC_HSI_ON))
 8000bda:	e03a      	b.n	8000c52 <HAL_RCC_OscConfig+0x202>
      }
    }
    else
    {
      /* Check the HSI State */
      if (RCC_OscInitStruct->HSIState != RCC_HSI_OFF)
 8000bdc:	687b      	ldr	r3, [r7, #4]
 8000bde:	691b      	ldr	r3, [r3, #16]
 8000be0:	2b00      	cmp	r3, #0
 8000be2:	d020      	beq.n	8000c26 <HAL_RCC_OscConfig+0x1d6>
      {
        /* Enable the Internal High Speed oscillator (HSI). */
        __HAL_RCC_HSI_ENABLE();
 8000be4:	4b36      	ldr	r3, [pc, #216]	; (8000cc0 <HAL_RCC_OscConfig+0x270>)
 8000be6:	2201      	movs	r2, #1
 8000be8:	601a      	str	r2, [r3, #0]

        /* Get Start Tick */
        tickstart = HAL_GetTick();
 8000bea:	f7ff fc85 	bl	80004f8 <HAL_GetTick>
 8000bee:	6138      	str	r0, [r7, #16]

        /* Wait till HSI is ready */
        while (__HAL_RCC_GET_FLAG(RCC_FLAG_HSIRDY) == RESET)
 8000bf0:	e008      	b.n	8000c04 <HAL_RCC_OscConfig+0x1b4>
        {
          if ((HAL_GetTick() - tickstart) > HSI_TIMEOUT_VALUE)
 8000bf2:	f7ff fc81 	bl	80004f8 <HAL_GetTick>
 8000bf6:	4602      	mov	r2, r0
 8000bf8:	693b      	ldr	r3, [r7, #16]
 8000bfa:	1ad3      	subs	r3, r2, r3
 8000bfc:	2b02      	cmp	r3, #2
 8000bfe:	d901      	bls.n	8000c04 <HAL_RCC_OscConfig+0x1b4>
          {
            return HAL_TIMEOUT;
 8000c00:	2303      	movs	r3, #3
 8000c02:	e1a1      	b.n	8000f48 <HAL_RCC_OscConfig+0x4f8>
        while (__HAL_RCC_GET_FLAG(RCC_FLAG_HSIRDY) == RESET)
 8000c04:	4b2d      	ldr	r3, [pc, #180]	; (8000cbc <HAL_RCC_OscConfig+0x26c>)
 8000c06:	681b      	ldr	r3, [r3, #0]
 8000c08:	f003 0302 	and.w	r3, r3, #2
 8000c0c:	2b00      	cmp	r3, #0
 8000c0e:	d0f0      	beq.n	8000bf2 <HAL_RCC_OscConfig+0x1a2>
          }
        }

        /* Adjusts the Internal High Speed oscillator (HSI) calibration value.*/
        __HAL_RCC_HSI_CALIBRATIONVALUE_ADJUST(RCC_OscInitStruct->HSICalibrationValue);
 8000c10:	4b2a      	ldr	r3, [pc, #168]	; (8000cbc <HAL_RCC_OscConfig+0x26c>)
 8000c12:	681b      	ldr	r3, [r3, #0]
 8000c14:	f023 02f8 	bic.w	r2, r3, #248	; 0xf8
 8000c18:	687b      	ldr	r3, [r7, #4]
 8000c1a:	695b      	ldr	r3, [r3, #20]
 8000c1c:	00db      	lsls	r3, r3, #3
 8000c1e:	4927      	ldr	r1, [pc, #156]	; (8000cbc <HAL_RCC_OscConfig+0x26c>)
 8000c20:	4313      	orrs	r3, r2
 8000c22:	600b      	str	r3, [r1, #0]
 8000c24:	e015      	b.n	8000c52 <HAL_RCC_OscConfig+0x202>
      }
      else
      {
        /* Disable the Internal High Speed oscillator (HSI). */
        __HAL_RCC_HSI_DISABLE();
 8000c26:	4b26      	ldr	r3, [pc, #152]	; (8000cc0 <HAL_RCC_OscConfig+0x270>)
 8000c28:	2200      	movs	r2, #0
 8000c2a:	601a      	str	r2, [r3, #0]

        /* Get Start Tick */
        tickstart = HAL_GetTick();
 8000c2c:	f7ff fc64 	bl	80004f8 <HAL_GetTick>
 8000c30:	6138      	str	r0, [r7, #16]

        /* Wait till HSI is disabled */
        while (__HAL_RCC_GET_FLAG(RCC_FLAG_HSIRDY) != RESET)
 8000c32:	e008      	b.n	8000c46 <HAL_RCC_OscConfig+0x1f6>
        {
          if ((HAL_GetTick() - tickstart) > HSI_TIMEOUT_VALUE)
 8000c34:	f7ff fc60 	bl	80004f8 <HAL_GetTick>
 8000c38:	4602      	mov	r2, r0
 8000c3a:	693b      	ldr	r3, [r7, #16]
 8000c3c:	1ad3      	subs	r3, r2, r3
 8000c3e:	2b02      	cmp	r3, #2
 8000c40:	d901      	bls.n	8000c46 <HAL_RCC_OscConfig+0x1f6>
          {
            return HAL_TIMEOUT;
 8000c42:	2303      	movs	r3, #3
 8000c44:	e180      	b.n	8000f48 <HAL_RCC_OscConfig+0x4f8>
        while (__HAL_RCC_GET_FLAG(RCC_FLAG_HSIRDY) != RESET)
 8000c46:	4b1d      	ldr	r3, [pc, #116]	; (8000cbc <HAL_RCC_OscConfig+0x26c>)
 8000c48:	681b      	ldr	r3, [r3, #0]
 8000c4a:	f003 0302 	and.w	r3, r3, #2
 8000c4e:	2b00      	cmp	r3, #0
 8000c50:	d1f0      	bne.n	8000c34 <HAL_RCC_OscConfig+0x1e4>
        }
      }
    }
  }
  /*------------------------------ LSI Configuration -------------------------*/
  if (((RCC_OscInitStruct->OscillatorType) & RCC_OSCILLATORTYPE_LSI) == RCC_OSCILLATORTYPE_LSI)
 8000c52:	687b      	ldr	r3, [r7, #4]
 8000c54:	681b      	ldr	r3, [r3, #0]
 8000c56:	f003 0308 	and.w	r3, r3, #8
 8000c5a:	2b00      	cmp	r3, #0
 8000c5c:	d03a      	beq.n	8000cd4 <HAL_RCC_OscConfig+0x284>
  {
    /* Check the parameters */
    assert_param(IS_RCC_LSI(RCC_OscInitStruct->LSIState));

    /* Check the LSI State */
    if (RCC_OscInitStruct->LSIState != RCC_LSI_OFF)
 8000c5e:	687b      	ldr	r3, [r7, #4]
 8000c60:	699b      	ldr	r3, [r3, #24]
 8000c62:	2b00      	cmp	r3, #0
 8000c64:	d019      	beq.n	8000c9a <HAL_RCC_OscConfig+0x24a>
    {
      /* Enable the Internal Low Speed oscillator (LSI). */
      __HAL_RCC_LSI_ENABLE();
 8000c66:	4b17      	ldr	r3, [pc, #92]	; (8000cc4 <HAL_RCC_OscConfig+0x274>)
 8000c68:	2201      	movs	r2, #1
 8000c6a:	601a      	str	r2, [r3, #0]

      /* Get Start Tick */
      tickstart = HAL_GetTick();
 8000c6c:	f7ff fc44 	bl	80004f8 <HAL_GetTick>
 8000c70:	6138      	str	r0, [r7, #16]

      /* Wait till LSI is ready */
      while (__HAL_RCC_GET_FLAG(RCC_FLAG_LSIRDY) == RESET)
 8000c72:	e008      	b.n	8000c86 <HAL_RCC_OscConfig+0x236>
      {
        if ((HAL_GetTick() - tickstart) > LSI_TIMEOUT_VALUE)
 8000c74:	f7ff fc40 	bl	80004f8 <HAL_GetTick>
 8000c78:	4602      	mov	r2, r0
 8000c7a:	693b      	ldr	r3, [r7, #16]
 8000c7c:	1ad3      	subs	r3, r2, r3
 8000c7e:	2b02      	cmp	r3, #2
 8000c80:	d901      	bls.n	8000c86 <HAL_RCC_OscConfig+0x236>
        {
          return HAL_TIMEOUT;
 8000c82:	2303      	movs	r3, #3
 8000c84:	e160      	b.n	8000f48 <HAL_RCC_OscConfig+0x4f8>
      while (__HAL_RCC_GET_FLAG(RCC_FLAG_LSIRDY) == RESET)
 8000c86:	4b0d      	ldr	r3, [pc, #52]	; (8000cbc <HAL_RCC_OscConfig+0x26c>)
 8000c88:	6a5b      	ldr	r3, [r3, #36]	; 0x24
 8000c8a:	f003 0302 	and.w	r3, r3, #2
 8000c8e:	2b00      	cmp	r3, #0
 8000c90:	d0f0      	beq.n	8000c74 <HAL_RCC_OscConfig+0x224>
        }
      }
      /*  To have a fully stabilized clock in the specified range, a software delay of 1ms
          should be added.*/
      RCC_Delay(1);
 8000c92:	2001      	movs	r0, #1
 8000c94:	f000 fa9c 	bl	80011d0 <RCC_Delay>
 8000c98:	e01c      	b.n	8000cd4 <HAL_RCC_OscConfig+0x284>
    }
    else
    {
      /* Disable the Internal Low Speed oscillator (LSI). */
      __HAL_RCC_LSI_DISABLE();
 8000c9a:	4b0a      	ldr	r3, [pc, #40]	; (8000cc4 <HAL_RCC_OscConfig+0x274>)
 8000c9c:	2200      	movs	r2, #0
 8000c9e:	601a      	str	r2, [r3, #0]

      /* Get Start Tick */
      tickstart = HAL_GetTick();
 8000ca0:	f7ff fc2a 	bl	80004f8 <HAL_GetTick>
 8000ca4:	6138      	str	r0, [r7, #16]

      /* Wait till LSI is disabled */
      while (__HAL_RCC_GET_FLAG(RCC_FLAG_LSIRDY) != RESET)
 8000ca6:	e00f      	b.n	8000cc8 <HAL_RCC_OscConfig+0x278>
      {
        if ((HAL_GetTick() - tickstart) > LSI_TIMEOUT_VALUE)
 8000ca8:	f7ff fc26 	bl	80004f8 <HAL_GetTick>
 8000cac:	4602      	mov	r2, r0
 8000cae:	693b      	ldr	r3, [r7, #16]
 8000cb0:	1ad3      	subs	r3, r2, r3
 8000cb2:	2b02      	cmp	r3, #2
 8000cb4:	d908      	bls.n	8000cc8 <HAL_RCC_OscConfig+0x278>
        {
          return HAL_TIMEOUT;
 8000cb6:	2303      	movs	r3, #3
 8000cb8:	e146      	b.n	8000f48 <HAL_RCC_OscConfig+0x4f8>
 8000cba:	bf00      	nop
 8000cbc:	40021000 	.word	0x40021000
 8000cc0:	42420000 	.word	0x42420000
 8000cc4:	42420480 	.word	0x42420480
      while (__HAL_RCC_GET_FLAG(RCC_FLAG_LSIRDY) != RESET)
 8000cc8:	4b92      	ldr	r3, [pc, #584]	; (8000f14 <HAL_RCC_OscConfig+0x4c4>)
 8000cca:	6a5b      	ldr	r3, [r3, #36]	; 0x24
 8000ccc:	f003 0302 	and.w	r3, r3, #2
 8000cd0:	2b00      	cmp	r3, #0
 8000cd2:	d1e9      	bne.n	8000ca8 <HAL_RCC_OscConfig+0x258>
        }
      }
    }
  }
  /*------------------------------ LSE Configuration -------------------------*/
  if (((RCC_OscInitStruct->OscillatorType) & RCC_OSCILLATORTYPE_LSE) == RCC_OSCILLATORTYPE_LSE)
 8000cd4:	687b      	ldr	r3, [r7, #4]
 8000cd6:	681b      	ldr	r3, [r3, #0]
 8000cd8:	f003 0304 	and.w	r3, r3, #4
 8000cdc:	2b00      	cmp	r3, #0
 8000cde:	f000 80a6 	beq.w	8000e2e <HAL_RCC_OscConfig+0x3de>
  {
    FlagStatus       pwrclkchanged = RESET;
 8000ce2:	2300      	movs	r3, #0
 8000ce4:	75fb      	strb	r3, [r7, #23]
    /* Check the parameters */
    assert_param(IS_RCC_LSE(RCC_OscInitStruct->LSEState));

    /* Update LSE configuration in Backup Domain control register    */
    /* Requires to enable write access to Backup Domain of necessary */
    if (__HAL_RCC_PWR_IS_CLK_DISABLED())
 8000ce6:	4b8b      	ldr	r3, [pc, #556]	; (8000f14 <HAL_RCC_OscConfig+0x4c4>)
 8000ce8:	69db      	ldr	r3, [r3, #28]
 8000cea:	f003 5380 	and.w	r3, r3, #268435456	; 0x10000000
 8000cee:	2b00      	cmp	r3, #0
 8000cf0:	d10d      	bne.n	8000d0e <HAL_RCC_OscConfig+0x2be>
    {
      __HAL_RCC_PWR_CLK_ENABLE();
 8000cf2:	4b88      	ldr	r3, [pc, #544]	; (8000f14 <HAL_RCC_OscConfig+0x4c4>)
 8000cf4:	69db      	ldr	r3, [r3, #28]
 8000cf6:	4a87      	ldr	r2, [pc, #540]	; (8000f14 <HAL_RCC_OscConfig+0x4c4>)
 8000cf8:	f043 5380 	orr.w	r3, r3, #268435456	; 0x10000000
 8000cfc:	61d3      	str	r3, [r2, #28]
 8000cfe:	4b85      	ldr	r3, [pc, #532]	; (8000f14 <HAL_RCC_OscConfig+0x4c4>)
 8000d00:	69db      	ldr	r3, [r3, #28]
 8000d02:	f003 5380 	and.w	r3, r3, #268435456	; 0x10000000
 8000d06:	60bb      	str	r3, [r7, #8]
 8000d08:	68bb      	ldr	r3, [r7, #8]
      pwrclkchanged = SET;
 8000d0a:	2301      	movs	r3, #1
 8000d0c:	75fb      	strb	r3, [r7, #23]
    }

    if (HAL_IS_BIT_CLR(PWR->CR, PWR_CR_DBP))
 8000d0e:	4b82      	ldr	r3, [pc, #520]	; (8000f18 <HAL_RCC_OscConfig+0x4c8>)
 8000d10:	681b      	ldr	r3, [r3, #0]
 8000d12:	f403 7380 	and.w	r3, r3, #256	; 0x100
 8000d16:	2b00      	cmp	r3, #0
 8000d18:	d118      	bne.n	8000d4c <HAL_RCC_OscConfig+0x2fc>
    {
      /* Enable write access to Backup domain */
      SET_BIT(PWR->CR, PWR_CR_DBP);
 8000d1a:	4b7f      	ldr	r3, [pc, #508]	; (8000f18 <HAL_RCC_OscConfig+0x4c8>)
 8000d1c:	681b      	ldr	r3, [r3, #0]
 8000d1e:	4a7e      	ldr	r2, [pc, #504]	; (8000f18 <HAL_RCC_OscConfig+0x4c8>)
 8000d20:	f443 7380 	orr.w	r3, r3, #256	; 0x100
 8000d24:	6013      	str	r3, [r2, #0]

      /* Wait for Backup domain Write protection disable */
      tickstart = HAL_GetTick();
 8000d26:	f7ff fbe7 	bl	80004f8 <HAL_GetTick>
 8000d2a:	6138      	str	r0, [r7, #16]

      while (HAL_IS_BIT_CLR(PWR->CR, PWR_CR_DBP))
 8000d2c:	e008      	b.n	8000d40 <HAL_RCC_OscConfig+0x2f0>
      {
        if ((HAL_GetTick() - tickstart) > RCC_DBP_TIMEOUT_VALUE)
 8000d2e:	f7ff fbe3 	bl	80004f8 <HAL_GetTick>
 8000d32:	4602      	mov	r2, r0
 8000d34:	693b      	ldr	r3, [r7, #16]
 8000d36:	1ad3      	subs	r3, r2, r3
 8000d38:	2b64      	cmp	r3, #100	; 0x64
 8000d3a:	d901      	bls.n	8000d40 <HAL_RCC_OscConfig+0x2f0>
        {
          return HAL_TIMEOUT;
 8000d3c:	2303      	movs	r3, #3
 8000d3e:	e103      	b.n	8000f48 <HAL_RCC_OscConfig+0x4f8>
      while (HAL_IS_BIT_CLR(PWR->CR, PWR_CR_DBP))
 8000d40:	4b75      	ldr	r3, [pc, #468]	; (8000f18 <HAL_RCC_OscConfig+0x4c8>)
 8000d42:	681b      	ldr	r3, [r3, #0]
 8000d44:	f403 7380 	and.w	r3, r3, #256	; 0x100
 8000d48:	2b00      	cmp	r3, #0
 8000d4a:	d0f0      	beq.n	8000d2e <HAL_RCC_OscConfig+0x2de>
        }
      }
    }

    /* Set the new LSE configuration -----------------------------------------*/
    __HAL_RCC_LSE_CONFIG(RCC_OscInitStruct->LSEState);
 8000d4c:	687b      	ldr	r3, [r7, #4]
 8000d4e:	68db      	ldr	r3, [r3, #12]
 8000d50:	2b01      	cmp	r3, #1
 8000d52:	d106      	bne.n	8000d62 <HAL_RCC_OscConfig+0x312>
 8000d54:	4b6f      	ldr	r3, [pc, #444]	; (8000f14 <HAL_RCC_OscConfig+0x4c4>)
 8000d56:	6a1b      	ldr	r3, [r3, #32]
 8000d58:	4a6e      	ldr	r2, [pc, #440]	; (8000f14 <HAL_RCC_OscConfig+0x4c4>)
 8000d5a:	f043 0301 	orr.w	r3, r3, #1
 8000d5e:	6213      	str	r3, [r2, #32]
 8000d60:	e02d      	b.n	8000dbe <HAL_RCC_OscConfig+0x36e>
 8000d62:	687b      	ldr	r3, [r7, #4]
 8000d64:	68db      	ldr	r3, [r3, #12]
 8000d66:	2b00      	cmp	r3, #0
 8000d68:	d10c      	bne.n	8000d84 <HAL_RCC_OscConfig+0x334>
 8000d6a:	4b6a      	ldr	r3, [pc, #424]	; (8000f14 <HAL_RCC_OscConfig+0x4c4>)
 8000d6c:	6a1b      	ldr	r3, [r3, #32]
 8000d6e:	4a69      	ldr	r2, [pc, #420]	; (8000f14 <HAL_RCC_OscConfig+0x4c4>)
 8000d70:	f023 0301 	bic.w	r3, r3, #1
 8000d74:	6213      	str	r3, [r2, #32]
 8000d76:	4b67      	ldr	r3, [pc, #412]	; (8000f14 <HAL_RCC_OscConfig+0x4c4>)
 8000d78:	6a1b      	ldr	r3, [r3, #32]
 8000d7a:	4a66      	ldr	r2, [pc, #408]	; (8000f14 <HAL_RCC_OscConfig+0x4c4>)
 8000d7c:	f023 0304 	bic.w	r3, r3, #4
 8000d80:	6213      	str	r3, [r2, #32]
 8000d82:	e01c      	b.n	8000dbe <HAL_RCC_OscConfig+0x36e>
 8000d84:	687b      	ldr	r3, [r7, #4]
 8000d86:	68db      	ldr	r3, [r3, #12]
 8000d88:	2b05      	cmp	r3, #5
 8000d8a:	d10c      	bne.n	8000da6 <HAL_RCC_OscConfig+0x356>
 8000d8c:	4b61      	ldr	r3, [pc, #388]	; (8000f14 <HAL_RCC_OscConfig+0x4c4>)
 8000d8e:	6a1b      	ldr	r3, [r3, #32]
 8000d90:	4a60      	ldr	r2, [pc, #384]	; (8000f14 <HAL_RCC_OscConfig+0x4c4>)
 8000d92:	f043 0304 	orr.w	r3, r3, #4
 8000d96:	6213      	str	r3, [r2, #32]
 8000d98:	4b5e      	ldr	r3, [pc, #376]	; (8000f14 <HAL_RCC_OscConfig+0x4c4>)
 8000d9a:	6a1b      	ldr	r3, [r3, #32]
 8000d9c:	4a5d      	ldr	r2, [pc, #372]	; (8000f14 <HAL_RCC_OscConfig+0x4c4>)
 8000d9e:	f043 0301 	orr.w	r3, r3, #1
 8000da2:	6213      	str	r3, [r2, #32]
 8000da4:	e00b      	b.n	8000dbe <HAL_RCC_OscConfig+0x36e>
 8000da6:	4b5b      	ldr	r3, [pc, #364]	; (8000f14 <HAL_RCC_OscConfig+0x4c4>)
 8000da8:	6a1b      	ldr	r3, [r3, #32]
 8000daa:	4a5a      	ldr	r2, [pc, #360]	; (8000f14 <HAL_RCC_OscConfig+0x4c4>)
 8000dac:	f023 0301 	bic.w	r3, r3, #1
 8000db0:	6213      	str	r3, [r2, #32]
 8000db2:	4b58      	ldr	r3, [pc, #352]	; (8000f14 <HAL_RCC_OscConfig+0x4c4>)
 8000db4:	6a1b      	ldr	r3, [r3, #32]
 8000db6:	4a57      	ldr	r2, [pc, #348]	; (8000f14 <HAL_RCC_OscConfig+0x4c4>)
 8000db8:	f023 0304 	bic.w	r3, r3, #4
 8000dbc:	6213      	str	r3, [r2, #32]
    /* Check the LSE State */
    if (RCC_OscInitStruct->LSEState != RCC_LSE_OFF)
 8000dbe:	687b      	ldr	r3, [r7, #4]
 8000dc0:	68db      	ldr	r3, [r3, #12]
 8000dc2:	2b00      	cmp	r3, #0
 8000dc4:	d015      	beq.n	8000df2 <HAL_RCC_OscConfig+0x3a2>
    {
      /* Get Start Tick */
      tickstart = HAL_GetTick();
 8000dc6:	f7ff fb97 	bl	80004f8 <HAL_GetTick>
 8000dca:	6138      	str	r0, [r7, #16]

      /* Wait till LSE is ready */
      while (__HAL_RCC_GET_FLAG(RCC_FLAG_LSERDY) == RESET)
 8000dcc:	e00a      	b.n	8000de4 <HAL_RCC_OscConfig+0x394>
      {
        if ((HAL_GetTick() - tickstart) > RCC_LSE_TIMEOUT_VALUE)
 8000dce:	f7ff fb93 	bl	80004f8 <HAL_GetTick>
 8000dd2:	4602      	mov	r2, r0
 8000dd4:	693b      	ldr	r3, [r7, #16]
 8000dd6:	1ad3      	subs	r3, r2, r3
 8000dd8:	f241 3288 	movw	r2, #5000	; 0x1388
 8000ddc:	4293      	cmp	r3, r2
 8000dde:	d901      	bls.n	8000de4 <HAL_RCC_OscConfig+0x394>
        {
          return HAL_TIMEOUT;
 8000de0:	2303      	movs	r3, #3
 8000de2:	e0b1      	b.n	8000f48 <HAL_RCC_OscConfig+0x4f8>
      while (__HAL_RCC_GET_FLAG(RCC_FLAG_LSERDY) == RESET)
 8000de4:	4b4b      	ldr	r3, [pc, #300]	; (8000f14 <HAL_RCC_OscConfig+0x4c4>)
 8000de6:	6a1b      	ldr	r3, [r3, #32]
 8000de8:	f003 0302 	and.w	r3, r3, #2
 8000dec:	2b00      	cmp	r3, #0
 8000dee:	d0ee      	beq.n	8000dce <HAL_RCC_OscConfig+0x37e>
 8000df0:	e014      	b.n	8000e1c <HAL_RCC_OscConfig+0x3cc>
      }
    }
    else
    {
      /* Get Start Tick */
      tickstart = HAL_GetTick();
 8000df2:	f7ff fb81 	bl	80004f8 <HAL_GetTick>
 8000df6:	6138      	str	r0, [r7, #16]

      /* Wait till LSE is disabled */
      while (__HAL_RCC_GET_FLAG(RCC_FLAG_LSERDY) != RESET)
 8000df8:	e00a      	b.n	8000e10 <HAL_RCC_OscConfig+0x3c0>
      {
        if ((HAL_GetTick() - tickstart) > RCC_LSE_TIMEOUT_VALUE)
 8000dfa:	f7ff fb7d 	bl	80004f8 <HAL_GetTick>
 8000dfe:	4602      	mov	r2, r0
 8000e00:	693b      	ldr	r3, [r7, #16]
 8000e02:	1ad3      	subs	r3, r2, r3
 8000e04:	f241 3288 	movw	r2, #5000	; 0x1388
 8000e08:	4293      	cmp	r3, r2
 8000e0a:	d901      	bls.n	8000e10 <HAL_RCC_OscConfig+0x3c0>
        {
          return HAL_TIMEOUT;
 8000e0c:	2303      	movs	r3, #3
 8000e0e:	e09b      	b.n	8000f48 <HAL_RCC_OscConfig+0x4f8>
      while (__HAL_RCC_GET_FLAG(RCC_FLAG_LSERDY) != RESET)
 8000e10:	4b40      	ldr	r3, [pc, #256]	; (8000f14 <HAL_RCC_OscConfig+0x4c4>)
 8000e12:	6a1b      	ldr	r3, [r3, #32]
 8000e14:	f003 0302 	and.w	r3, r3, #2
 8000e18:	2b00      	cmp	r3, #0
 8000e1a:	d1ee      	bne.n	8000dfa <HAL_RCC_OscConfig+0x3aa>
        }
      }
    }

    /* Require to disable power clock if necessary */
    if (pwrclkchanged == SET)
 8000e1c:	7dfb      	ldrb	r3, [r7, #23]
 8000e1e:	2b01      	cmp	r3, #1
 8000e20:	d105      	bne.n	8000e2e <HAL_RCC_OscConfig+0x3de>
    {
      __HAL_RCC_PWR_CLK_DISABLE();
 8000e22:	4b3c      	ldr	r3, [pc, #240]	; (8000f14 <HAL_RCC_OscConfig+0x4c4>)
 8000e24:	69db      	ldr	r3, [r3, #28]
 8000e26:	4a3b      	ldr	r2, [pc, #236]	; (8000f14 <HAL_RCC_OscConfig+0x4c4>)
 8000e28:	f023 5380 	bic.w	r3, r3, #268435456	; 0x10000000
 8000e2c:	61d3      	str	r3, [r2, #28]

#endif /* RCC_CR_PLL2ON */
  /*-------------------------------- PLL Configuration -----------------------*/
  /* Check the parameters */
  assert_param(IS_RCC_PLL(RCC_OscInitStruct->PLL.PLLState));
  if ((RCC_OscInitStruct->PLL.PLLState) != RCC_PLL_NONE)
 8000e2e:	687b      	ldr	r3, [r7, #4]
 8000e30:	69db      	ldr	r3, [r3, #28]
 8000e32:	2b00      	cmp	r3, #0
 8000e34:	f000 8087 	beq.w	8000f46 <HAL_RCC_OscConfig+0x4f6>
  {
    /* Check if the PLL is used as system clock or not */
    if (__HAL_RCC_GET_SYSCLK_SOURCE() != RCC_SYSCLKSOURCE_STATUS_PLLCLK)
 8000e38:	4b36      	ldr	r3, [pc, #216]	; (8000f14 <HAL_RCC_OscConfig+0x4c4>)
 8000e3a:	685b      	ldr	r3, [r3, #4]
 8000e3c:	f003 030c 	and.w	r3, r3, #12
 8000e40:	2b08      	cmp	r3, #8
 8000e42:	d061      	beq.n	8000f08 <HAL_RCC_OscConfig+0x4b8>
    {
      if ((RCC_OscInitStruct->PLL.PLLState) == RCC_PLL_ON)
 8000e44:	687b      	ldr	r3, [r7, #4]
 8000e46:	69db      	ldr	r3, [r3, #28]
 8000e48:	2b02      	cmp	r3, #2
 8000e4a:	d146      	bne.n	8000eda <HAL_RCC_OscConfig+0x48a>
        /* Check the parameters */
        assert_param(IS_RCC_PLLSOURCE(RCC_OscInitStruct->PLL.PLLSource));
        assert_param(IS_RCC_PLL_MUL(RCC_OscInitStruct->PLL.PLLMUL));

        /* Disable the main PLL. */
        __HAL_RCC_PLL_DISABLE();
 8000e4c:	4b33      	ldr	r3, [pc, #204]	; (8000f1c <HAL_RCC_OscConfig+0x4cc>)
 8000e4e:	2200      	movs	r2, #0
 8000e50:	601a      	str	r2, [r3, #0]

        /* Get Start Tick */
        tickstart = HAL_GetTick();
 8000e52:	f7ff fb51 	bl	80004f8 <HAL_GetTick>
 8000e56:	6138      	str	r0, [r7, #16]

        /* Wait till PLL is disabled */
        while (__HAL_RCC_GET_FLAG(RCC_FLAG_PLLRDY)  != RESET)
 8000e58:	e008      	b.n	8000e6c <HAL_RCC_OscConfig+0x41c>
        {
          if ((HAL_GetTick() - tickstart) > PLL_TIMEOUT_VALUE)
 8000e5a:	f7ff fb4d 	bl	80004f8 <HAL_GetTick>
 8000e5e:	4602      	mov	r2, r0
 8000e60:	693b      	ldr	r3, [r7, #16]
 8000e62:	1ad3      	subs	r3, r2, r3
 8000e64:	2b02      	cmp	r3, #2
 8000e66:	d901      	bls.n	8000e6c <HAL_RCC_OscConfig+0x41c>
          {
            return HAL_TIMEOUT;
 8000e68:	2303      	movs	r3, #3
 8000e6a:	e06d      	b.n	8000f48 <HAL_RCC_OscConfig+0x4f8>
        while (__HAL_RCC_GET_FLAG(RCC_FLAG_PLLRDY)  != RESET)
 8000e6c:	4b29      	ldr	r3, [pc, #164]	; (8000f14 <HAL_RCC_OscConfig+0x4c4>)
 8000e6e:	681b      	ldr	r3, [r3, #0]
 8000e70:	f003 7300 	and.w	r3, r3, #33554432	; 0x2000000
 8000e74:	2b00      	cmp	r3, #0
 8000e76:	d1f0      	bne.n	8000e5a <HAL_RCC_OscConfig+0x40a>
          }
        }

        /* Configure the HSE prediv factor --------------------------------*/
        /* It can be written only when the PLL is disabled. Not used in PLL source is different than HSE */
        if (RCC_OscInitStruct->PLL.PLLSource == RCC_PLLSOURCE_HSE)
 8000e78:	687b      	ldr	r3, [r7, #4]
 8000e7a:	6a1b      	ldr	r3, [r3, #32]
 8000e7c:	f5b3 3f80 	cmp.w	r3, #65536	; 0x10000
 8000e80:	d108      	bne.n	8000e94 <HAL_RCC_OscConfig+0x444>
          /* Set PREDIV1 source */
          SET_BIT(RCC->CFGR2, RCC_OscInitStruct->Prediv1Source);
#endif /* RCC_CFGR2_PREDIV1SRC */

          /* Set PREDIV1 Value */
          __HAL_RCC_HSE_PREDIV_CONFIG(RCC_OscInitStruct->HSEPredivValue);
 8000e82:	4b24      	ldr	r3, [pc, #144]	; (8000f14 <HAL_RCC_OscConfig+0x4c4>)
 8000e84:	685b      	ldr	r3, [r3, #4]
 8000e86:	f423 3200 	bic.w	r2, r3, #131072	; 0x20000
 8000e8a:	687b      	ldr	r3, [r7, #4]
 8000e8c:	689b      	ldr	r3, [r3, #8]
 8000e8e:	4921      	ldr	r1, [pc, #132]	; (8000f14 <HAL_RCC_OscConfig+0x4c4>)
 8000e90:	4313      	orrs	r3, r2
 8000e92:	604b      	str	r3, [r1, #4]
        }

        /* Configure the main PLL clock source and multiplication factors. */
        __HAL_RCC_PLL_CONFIG(RCC_OscInitStruct->PLL.PLLSource,
 8000e94:	4b1f      	ldr	r3, [pc, #124]	; (8000f14 <HAL_RCC_OscConfig+0x4c4>)
 8000e96:	685b      	ldr	r3, [r3, #4]
 8000e98:	f423 1274 	bic.w	r2, r3, #3997696	; 0x3d0000
 8000e9c:	687b      	ldr	r3, [r7, #4]
 8000e9e:	6a19      	ldr	r1, [r3, #32]
 8000ea0:	687b      	ldr	r3, [r7, #4]
 8000ea2:	6a5b      	ldr	r3, [r3, #36]	; 0x24
 8000ea4:	430b      	orrs	r3, r1
 8000ea6:	491b      	ldr	r1, [pc, #108]	; (8000f14 <HAL_RCC_OscConfig+0x4c4>)
 8000ea8:	4313      	orrs	r3, r2
 8000eaa:	604b      	str	r3, [r1, #4]
                             RCC_OscInitStruct->PLL.PLLMUL);
        /* Enable the main PLL. */
        __HAL_RCC_PLL_ENABLE();
 8000eac:	4b1b      	ldr	r3, [pc, #108]	; (8000f1c <HAL_RCC_OscConfig+0x4cc>)
 8000eae:	2201      	movs	r2, #1
 8000eb0:	601a      	str	r2, [r3, #0]

        /* Get Start Tick */
        tickstart = HAL_GetTick();
 8000eb2:	f7ff fb21 	bl	80004f8 <HAL_GetTick>
 8000eb6:	6138      	str	r0, [r7, #16]

        /* Wait till PLL is ready */
        while (__HAL_RCC_GET_FLAG(RCC_FLAG_PLLRDY)  == RESET)
 8000eb8:	e008      	b.n	8000ecc <HAL_RCC_OscConfig+0x47c>
        {
          if ((HAL_GetTick() - tickstart) > PLL_TIMEOUT_VALUE)
 8000eba:	f7ff fb1d 	bl	80004f8 <HAL_GetTick>
 8000ebe:	4602      	mov	r2, r0
 8000ec0:	693b      	ldr	r3, [r7, #16]
 8000ec2:	1ad3      	subs	r3, r2, r3
 8000ec4:	2b02      	cmp	r3, #2
 8000ec6:	d901      	bls.n	8000ecc <HAL_RCC_OscConfig+0x47c>
          {
            return HAL_TIMEOUT;
 8000ec8:	2303      	movs	r3, #3
 8000eca:	e03d      	b.n	8000f48 <HAL_RCC_OscConfig+0x4f8>
        while (__HAL_RCC_GET_FLAG(RCC_FLAG_PLLRDY)  == RESET)
 8000ecc:	4b11      	ldr	r3, [pc, #68]	; (8000f14 <HAL_RCC_OscConfig+0x4c4>)
 8000ece:	681b      	ldr	r3, [r3, #0]
 8000ed0:	f003 7300 	and.w	r3, r3, #33554432	; 0x2000000
 8000ed4:	2b00      	cmp	r3, #0
 8000ed6:	d0f0      	beq.n	8000eba <HAL_RCC_OscConfig+0x46a>
 8000ed8:	e035      	b.n	8000f46 <HAL_RCC_OscConfig+0x4f6>
        }
      }
      else
      {
        /* Disable the main PLL. */
        __HAL_RCC_PLL_DISABLE();
 8000eda:	4b10      	ldr	r3, [pc, #64]	; (8000f1c <HAL_RCC_OscConfig+0x4cc>)
 8000edc:	2200      	movs	r2, #0
 8000ede:	601a      	str	r2, [r3, #0]

        /* Get Start Tick */
        tickstart = HAL_GetTick();
 8000ee0:	f7ff fb0a 	bl	80004f8 <HAL_GetTick>
 8000ee4:	6138      	str	r0, [r7, #16]

        /* Wait till PLL is disabled */
        while (__HAL_RCC_GET_FLAG(RCC_FLAG_PLLRDY)  != RESET)
 8000ee6:	e008      	b.n	8000efa <HAL_RCC_OscConfig+0x4aa>
        {
          if ((HAL_GetTick() - tickstart) > PLL_TIMEOUT_VALUE)
 8000ee8:	f7ff fb06 	bl	80004f8 <HAL_GetTick>
 8000eec:	4602      	mov	r2, r0
 8000eee:	693b      	ldr	r3, [r7, #16]
 8000ef0:	1ad3      	subs	r3, r2, r3
 8000ef2:	2b02      	cmp	r3, #2
 8000ef4:	d901      	bls.n	8000efa <HAL_RCC_OscConfig+0x4aa>
          {
            return HAL_TIMEOUT;
 8000ef6:	2303      	movs	r3, #3
 8000ef8:	e026      	b.n	8000f48 <HAL_RCC_OscConfig+0x4f8>
        while (__HAL_RCC_GET_FLAG(RCC_FLAG_PLLRDY)  != RESET)
 8000efa:	4b06      	ldr	r3, [pc, #24]	; (8000f14 <HAL_RCC_OscConfig+0x4c4>)
 8000efc:	681b      	ldr	r3, [r3, #0]
 8000efe:	f003 7300 	and.w	r3, r3, #33554432	; 0x2000000
 8000f02:	2b00      	cmp	r3, #0
 8000f04:	d1f0      	bne.n	8000ee8 <HAL_RCC_OscConfig+0x498>
 8000f06:	e01e      	b.n	8000f46 <HAL_RCC_OscConfig+0x4f6>
      }
    }
    else
    {
      /* Check if there is a request to disable the PLL used as System clock source */
      if ((RCC_OscInitStruct->PLL.PLLState) == RCC_PLL_OFF)
 8000f08:	687b      	ldr	r3, [r7, #4]
 8000f0a:	69db      	ldr	r3, [r3, #28]
 8000f0c:	2b01      	cmp	r3, #1
 8000f0e:	d107      	bne.n	8000f20 <HAL_RCC_OscConfig+0x4d0>
      {
        return HAL_ERROR;
 8000f10:	2301      	movs	r3, #1
 8000f12:	e019      	b.n	8000f48 <HAL_RCC_OscConfig+0x4f8>
 8000f14:	40021000 	.word	0x40021000
 8000f18:	40007000 	.word	0x40007000
 8000f1c:	42420060 	.word	0x42420060
      }
      else
      {
        /* Do not return HAL_ERROR if request repeats the current configuration */
        pll_config = RCC->CFGR;
 8000f20:	4b0b      	ldr	r3, [pc, #44]	; (8000f50 <HAL_RCC_OscConfig+0x500>)
 8000f22:	685b      	ldr	r3, [r3, #4]
 8000f24:	60fb      	str	r3, [r7, #12]
        if ((READ_BIT(pll_config, RCC_CFGR_PLLSRC) != RCC_OscInitStruct->PLL.PLLSource) ||
 8000f26:	68fb      	ldr	r3, [r7, #12]
 8000f28:	f403 3280 	and.w	r2, r3, #65536	; 0x10000
 8000f2c:	687b      	ldr	r3, [r7, #4]
 8000f2e:	6a1b      	ldr	r3, [r3, #32]
 8000f30:	429a      	cmp	r2, r3
 8000f32:	d106      	bne.n	8000f42 <HAL_RCC_OscConfig+0x4f2>
            (READ_BIT(pll_config, RCC_CFGR_PLLMULL) != RCC_OscInitStruct->PLL.PLLMUL))
 8000f34:	68fb      	ldr	r3, [r7, #12]
 8000f36:	f403 1270 	and.w	r2, r3, #3932160	; 0x3c0000
 8000f3a:	687b      	ldr	r3, [r7, #4]
 8000f3c:	6a5b      	ldr	r3, [r3, #36]	; 0x24
        if ((READ_BIT(pll_config, RCC_CFGR_PLLSRC) != RCC_OscInitStruct->PLL.PLLSource) ||
 8000f3e:	429a      	cmp	r2, r3
 8000f40:	d001      	beq.n	8000f46 <HAL_RCC_OscConfig+0x4f6>
        {
          return HAL_ERROR;
 8000f42:	2301      	movs	r3, #1
 8000f44:	e000      	b.n	8000f48 <HAL_RCC_OscConfig+0x4f8>
        }
      }
    }
  }

  return HAL_OK;
 8000f46:	2300      	movs	r3, #0
}
 8000f48:	4618      	mov	r0, r3
 8000f4a:	3718      	adds	r7, #24
 8000f4c:	46bd      	mov	sp, r7
 8000f4e:	bd80      	pop	{r7, pc}
 8000f50:	40021000 	.word	0x40021000

08000f54 <HAL_RCC_ClockConfig>:
  *         You can use @ref HAL_RCC_GetClockConfig() function to know which clock is
  *         currently used as system clock source.
  * @retval HAL status
  */
HAL_StatusTypeDef HAL_RCC_ClockConfig(RCC_ClkInitTypeDef  *RCC_ClkInitStruct, uint32_t FLatency)
{
 8000f54:	b580      	push	{r7, lr}
 8000f56:	b084      	sub	sp, #16
 8000f58:	af00      	add	r7, sp, #0
 8000f5a:	6078      	str	r0, [r7, #4]
 8000f5c:	6039      	str	r1, [r7, #0]
  uint32_t tickstart;

  /* Check Null pointer */
  if (RCC_ClkInitStruct == NULL)
 8000f5e:	687b      	ldr	r3, [r7, #4]
 8000f60:	2b00      	cmp	r3, #0
 8000f62:	d101      	bne.n	8000f68 <HAL_RCC_ClockConfig+0x14>
  {
    return HAL_ERROR;
 8000f64:	2301      	movs	r3, #1
 8000f66:	e0d0      	b.n	800110a <HAL_RCC_ClockConfig+0x1b6>
  must be correctly programmed according to the frequency of the CPU clock
    (HCLK) of the device. */

#if defined(FLASH_ACR_LATENCY)
  /* Increasing the number of wait states because of higher CPU frequency */
  if (FLatency > __HAL_FLASH_GET_LATENCY())
 8000f68:	4b6a      	ldr	r3, [pc, #424]	; (8001114 <HAL_RCC_ClockConfig+0x1c0>)
 8000f6a:	681b      	ldr	r3, [r3, #0]
 8000f6c:	f003 0307 	and.w	r3, r3, #7
 8000f70:	683a      	ldr	r2, [r7, #0]
 8000f72:	429a      	cmp	r2, r3
 8000f74:	d910      	bls.n	8000f98 <HAL_RCC_ClockConfig+0x44>
  {
    /* Program the new number of wait states to the LATENCY bits in the FLASH_ACR register */
    __HAL_FLASH_SET_LATENCY(FLatency);
 8000f76:	4b67      	ldr	r3, [pc, #412]	; (8001114 <HAL_RCC_ClockConfig+0x1c0>)
 8000f78:	681b      	ldr	r3, [r3, #0]
 8000f7a:	f023 0207 	bic.w	r2, r3, #7
 8000f7e:	4965      	ldr	r1, [pc, #404]	; (8001114 <HAL_RCC_ClockConfig+0x1c0>)
 8000f80:	683b      	ldr	r3, [r7, #0]
 8000f82:	4313      	orrs	r3, r2
 8000f84:	600b      	str	r3, [r1, #0]

    /* Check that the new number of wait states is taken into account to access the Flash
    memory by reading the FLASH_ACR register */
    if (__HAL_FLASH_GET_LATENCY() != FLatency)
 8000f86:	4b63      	ldr	r3, [pc, #396]	; (8001114 <HAL_RCC_ClockConfig+0x1c0>)
 8000f88:	681b      	ldr	r3, [r3, #0]
 8000f8a:	f003 0307 	and.w	r3, r3, #7
 8000f8e:	683a      	ldr	r2, [r7, #0]
 8000f90:	429a      	cmp	r2, r3
 8000f92:	d001      	beq.n	8000f98 <HAL_RCC_ClockConfig+0x44>
  {
    return HAL_ERROR;
 8000f94:	2301      	movs	r3, #1
 8000f96:	e0b8      	b.n	800110a <HAL_RCC_ClockConfig+0x1b6>
  }
}

#endif /* FLASH_ACR_LATENCY */
/*-------------------------- HCLK Configuration --------------------------*/
if (((RCC_ClkInitStruct->ClockType) & RCC_CLOCKTYPE_HCLK) == RCC_CLOCKTYPE_HCLK)
 8000f98:	687b      	ldr	r3, [r7, #4]
 8000f9a:	681b      	ldr	r3, [r3, #0]
 8000f9c:	f003 0302 	and.w	r3, r3, #2
 8000fa0:	2b00      	cmp	r3, #0
 8000fa2:	d020      	beq.n	8000fe6 <HAL_RCC_ClockConfig+0x92>
  {
    /* Set the highest APBx dividers in order to ensure that we do not go through
    a non-spec phase whatever we decrease or increase HCLK. */
    if (((RCC_ClkInitStruct->ClockType) & RCC_CLOCKTYPE_PCLK1) == RCC_CLOCKTYPE_PCLK1)
 8000fa4:	687b      	ldr	r3, [r7, #4]
 8000fa6:	681b      	ldr	r3, [r3, #0]
 8000fa8:	f003 0304 	and.w	r3, r3, #4
 8000fac:	2b00      	cmp	r3, #0
 8000fae:	d005      	beq.n	8000fbc <HAL_RCC_ClockConfig+0x68>
    {
      MODIFY_REG(RCC->CFGR, RCC_CFGR_PPRE1, RCC_HCLK_DIV16);
 8000fb0:	4b59      	ldr	r3, [pc, #356]	; (8001118 <HAL_RCC_ClockConfig+0x1c4>)
 8000fb2:	685b      	ldr	r3, [r3, #4]
 8000fb4:	4a58      	ldr	r2, [pc, #352]	; (8001118 <HAL_RCC_ClockConfig+0x1c4>)
 8000fb6:	f443 63e0 	orr.w	r3, r3, #1792	; 0x700
 8000fba:	6053      	str	r3, [r2, #4]
    }

    if (((RCC_ClkInitStruct->ClockType) & RCC_CLOCKTYPE_PCLK2) == RCC_CLOCKTYPE_PCLK2)
 8000fbc:	687b      	ldr	r3, [r7, #4]
 8000fbe:	681b      	ldr	r3, [r3, #0]
 8000fc0:	f003 0308 	and.w	r3, r3, #8
 8000fc4:	2b00      	cmp	r3, #0
 8000fc6:	d005      	beq.n	8000fd4 <HAL_RCC_ClockConfig+0x80>
    {
      MODIFY_REG(RCC->CFGR, RCC_CFGR_PPRE2, (RCC_HCLK_DIV16 << 3));
 8000fc8:	4b53      	ldr	r3, [pc, #332]	; (8001118 <HAL_RCC_ClockConfig+0x1c4>)
 8000fca:	685b      	ldr	r3, [r3, #4]
 8000fcc:	4a52      	ldr	r2, [pc, #328]	; (8001118 <HAL_RCC_ClockConfig+0x1c4>)
 8000fce:	f443 5360 	orr.w	r3, r3, #14336	; 0x3800
 8000fd2:	6053      	str	r3, [r2, #4]
    }

    /* Set the new HCLK clock divider */
    assert_param(IS_RCC_HCLK(RCC_ClkInitStruct->AHBCLKDivider));
    MODIFY_REG(RCC->CFGR, RCC_CFGR_HPRE, RCC_ClkInitStruct->AHBCLKDivider);
 8000fd4:	4b50      	ldr	r3, [pc, #320]	; (8001118 <HAL_RCC_ClockConfig+0x1c4>)
 8000fd6:	685b      	ldr	r3, [r3, #4]
 8000fd8:	f023 02f0 	bic.w	r2, r3, #240	; 0xf0
 8000fdc:	687b      	ldr	r3, [r7, #4]
 8000fde:	689b      	ldr	r3, [r3, #8]
 8000fe0:	494d      	ldr	r1, [pc, #308]	; (8001118 <HAL_RCC_ClockConfig+0x1c4>)
 8000fe2:	4313      	orrs	r3, r2
 8000fe4:	604b      	str	r3, [r1, #4]
  }

  /*------------------------- SYSCLK Configuration ---------------------------*/
  if (((RCC_ClkInitStruct->ClockType) & RCC_CLOCKTYPE_SYSCLK) == RCC_CLOCKTYPE_SYSCLK)
 8000fe6:	687b      	ldr	r3, [r7, #4]
 8000fe8:	681b      	ldr	r3, [r3, #0]
 8000fea:	f003 0301 	and.w	r3, r3, #1
 8000fee:	2b00      	cmp	r3, #0
 8000ff0:	d040      	beq.n	8001074 <HAL_RCC_ClockConfig+0x120>
  {
    assert_param(IS_RCC_SYSCLKSOURCE(RCC_ClkInitStruct->SYSCLKSource));

    /* HSE is selected as System Clock Source */
    if (RCC_ClkInitStruct->SYSCLKSource == RCC_SYSCLKSOURCE_HSE)
 8000ff2:	687b      	ldr	r3, [r7, #4]
 8000ff4:	685b      	ldr	r3, [r3, #4]
 8000ff6:	2b01      	cmp	r3, #1
 8000ff8:	d107      	bne.n	800100a <HAL_RCC_ClockConfig+0xb6>
    {
      /* Check the HSE ready flag */
      if (__HAL_RCC_GET_FLAG(RCC_FLAG_HSERDY) == RESET)
 8000ffa:	4b47      	ldr	r3, [pc, #284]	; (8001118 <HAL_RCC_ClockConfig+0x1c4>)
 8000ffc:	681b      	ldr	r3, [r3, #0]
 8000ffe:	f403 3300 	and.w	r3, r3, #131072	; 0x20000
 8001002:	2b00      	cmp	r3, #0
 8001004:	d115      	bne.n	8001032 <HAL_RCC_ClockConfig+0xde>
      {
        return HAL_ERROR;
 8001006:	2301      	movs	r3, #1
 8001008:	e07f      	b.n	800110a <HAL_RCC_ClockConfig+0x1b6>
      }
    }
    /* PLL is selected as System Clock Source */
    else if (RCC_ClkInitStruct->SYSCLKSource == RCC_SYSCLKSOURCE_PLLCLK)
 800100a:	687b      	ldr	r3, [r7, #4]
 800100c:	685b      	ldr	r3, [r3, #4]
 800100e:	2b02      	cmp	r3, #2
 8001010:	d107      	bne.n	8001022 <HAL_RCC_ClockConfig+0xce>
    {
      /* Check the PLL ready flag */
      if (__HAL_RCC_GET_FLAG(RCC_FLAG_PLLRDY) == RESET)
 8001012:	4b41      	ldr	r3, [pc, #260]	; (8001118 <HAL_RCC_ClockConfig+0x1c4>)
 8001014:	681b      	ldr	r3, [r3, #0]
 8001016:	f003 7300 	and.w	r3, r3, #33554432	; 0x2000000
 800101a:	2b00      	cmp	r3, #0
 800101c:	d109      	bne.n	8001032 <HAL_RCC_ClockConfig+0xde>
      {
        return HAL_ERROR;
 800101e:	2301      	movs	r3, #1
 8001020:	e073      	b.n	800110a <HAL_RCC_ClockConfig+0x1b6>
    }
    /* HSI is selected as System Clock Source */
    else
    {
      /* Check the HSI ready flag */
      if (__HAL_RCC_GET_FLAG(RCC_FLAG_HSIRDY) == RESET)
 8001022:	4b3d      	ldr	r3, [pc, #244]	; (8001118 <HAL_RCC_ClockConfig+0x1c4>)
 8001024:	681b      	ldr	r3, [r3, #0]
 8001026:	f003 0302 	and.w	r3, r3, #2
 800102a:	2b00      	cmp	r3, #0
 800102c:	d101      	bne.n	8001032 <HAL_RCC_ClockConfig+0xde>
      {
        return HAL_ERROR;
 800102e:	2301      	movs	r3, #1
 8001030:	e06b      	b.n	800110a <HAL_RCC_ClockConfig+0x1b6>
      }
    }
    __HAL_RCC_SYSCLK_CONFIG(RCC_ClkInitStruct->SYSCLKSource);
 8001032:	4b39      	ldr	r3, [pc, #228]	; (8001118 <HAL_RCC_ClockConfig+0x1c4>)
 8001034:	685b      	ldr	r3, [r3, #4]
 8001036:	f023 0203 	bic.w	r2, r3, #3
 800103a:	687b      	ldr	r3, [r7, #4]
 800103c:	685b      	ldr	r3, [r3, #4]
 800103e:	4936      	ldr	r1, [pc, #216]	; (8001118 <HAL_RCC_ClockConfig+0x1c4>)
 8001040:	4313      	orrs	r3, r2
 8001042:	604b      	str	r3, [r1, #4]

    /* Get Start Tick */
    tickstart = HAL_GetTick();
 8001044:	f7ff fa58 	bl	80004f8 <HAL_GetTick>
 8001048:	60f8      	str	r0, [r7, #12]

    while (__HAL_RCC_GET_SYSCLK_SOURCE() != (RCC_ClkInitStruct->SYSCLKSource << RCC_CFGR_SWS_Pos))
 800104a:	e00a      	b.n	8001062 <HAL_RCC_ClockConfig+0x10e>
    {
      if ((HAL_GetTick() - tickstart) > CLOCKSWITCH_TIMEOUT_VALUE)
 800104c:	f7ff fa54 	bl	80004f8 <HAL_GetTick>
 8001050:	4602      	mov	r2, r0
 8001052:	68fb      	ldr	r3, [r7, #12]
 8001054:	1ad3      	subs	r3, r2, r3
 8001056:	f241 3288 	movw	r2, #5000	; 0x1388
 800105a:	4293      	cmp	r3, r2
 800105c:	d901      	bls.n	8001062 <HAL_RCC_ClockConfig+0x10e>
      {
        return HAL_TIMEOUT;
 800105e:	2303      	movs	r3, #3
 8001060:	e053      	b.n	800110a <HAL_RCC_ClockConfig+0x1b6>
    while (__HAL_RCC_GET_SYSCLK_SOURCE() != (RCC_ClkInitStruct->SYSCLKSource << RCC_CFGR_SWS_Pos))
 8001062:	4b2d      	ldr	r3, [pc, #180]	; (8001118 <HAL_RCC_ClockConfig+0x1c4>)
 8001064:	685b      	ldr	r3, [r3, #4]
 8001066:	f003 020c 	and.w	r2, r3, #12
 800106a:	687b      	ldr	r3, [r7, #4]
 800106c:	685b      	ldr	r3, [r3, #4]
 800106e:	009b      	lsls	r3, r3, #2
 8001070:	429a      	cmp	r2, r3
 8001072:	d1eb      	bne.n	800104c <HAL_RCC_ClockConfig+0xf8>
    }
  }

#if defined(FLASH_ACR_LATENCY)
  /* Decreasing the number of wait states because of lower CPU frequency */
  if (FLatency < __HAL_FLASH_GET_LATENCY())
 8001074:	4b27      	ldr	r3, [pc, #156]	; (8001114 <HAL_RCC_ClockConfig+0x1c0>)
 8001076:	681b      	ldr	r3, [r3, #0]
 8001078:	f003 0307 	and.w	r3, r3, #7
 800107c:	683a      	ldr	r2, [r7, #0]
 800107e:	429a      	cmp	r2, r3
 8001080:	d210      	bcs.n	80010a4 <HAL_RCC_ClockConfig+0x150>
  {
    /* Program the new number of wait states to the LATENCY bits in the FLASH_ACR register */
    __HAL_FLASH_SET_LATENCY(FLatency);
 8001082:	4b24      	ldr	r3, [pc, #144]	; (8001114 <HAL_RCC_ClockConfig+0x1c0>)
 8001084:	681b      	ldr	r3, [r3, #0]
 8001086:	f023 0207 	bic.w	r2, r3, #7
 800108a:	4922      	ldr	r1, [pc, #136]	; (8001114 <HAL_RCC_ClockConfig+0x1c0>)
 800108c:	683b      	ldr	r3, [r7, #0]
 800108e:	4313      	orrs	r3, r2
 8001090:	600b      	str	r3, [r1, #0]

    /* Check that the new number of wait states is taken into account to access the Flash
    memory by reading the FLASH_ACR register */
    if (__HAL_FLASH_GET_LATENCY() != FLatency)
 8001092:	4b20      	ldr	r3, [pc, #128]	; (8001114 <HAL_RCC_ClockConfig+0x1c0>)
 8001094:	681b      	ldr	r3, [r3, #0]
 8001096:	f003 0307 	and.w	r3, r3, #7
 800109a:	683a      	ldr	r2, [r7, #0]
 800109c:	429a      	cmp	r2, r3
 800109e:	d001      	beq.n	80010a4 <HAL_RCC_ClockConfig+0x150>
  {
    return HAL_ERROR;
 80010a0:	2301      	movs	r3, #1
 80010a2:	e032      	b.n	800110a <HAL_RCC_ClockConfig+0x1b6>
  }
}
#endif /* FLASH_ACR_LATENCY */

/*-------------------------- PCLK1 Configuration ---------------------------*/
if (((RCC_ClkInitStruct->ClockType) & RCC_CLOCKTYPE_PCLK1) == RCC_CLOCKTYPE_PCLK1)
 80010a4:	687b      	ldr	r3, [r7, #4]
 80010a6:	681b      	ldr	r3, [r3, #0]
 80010a8:	f003 0304 	and.w	r3, r3, #4
 80010ac:	2b00      	cmp	r3, #0
 80010ae:	d008      	beq.n	80010c2 <HAL_RCC_ClockConfig+0x16e>
  {
    assert_param(IS_RCC_PCLK(RCC_ClkInitStruct->APB1CLKDivider));
    MODIFY_REG(RCC->CFGR, RCC_CFGR_PPRE1, RCC_ClkInitStruct->APB1CLKDivider);
 80010b0:	4b19      	ldr	r3, [pc, #100]	; (8001118 <HAL_RCC_ClockConfig+0x1c4>)
 80010b2:	685b      	ldr	r3, [r3, #4]
 80010b4:	f423 62e0 	bic.w	r2, r3, #1792	; 0x700
 80010b8:	687b      	ldr	r3, [r7, #4]
 80010ba:	68db      	ldr	r3, [r3, #12]
 80010bc:	4916      	ldr	r1, [pc, #88]	; (8001118 <HAL_RCC_ClockConfig+0x1c4>)
 80010be:	4313      	orrs	r3, r2
 80010c0:	604b      	str	r3, [r1, #4]
  }

  /*-------------------------- PCLK2 Configuration ---------------------------*/
  if (((RCC_ClkInitStruct->ClockType) & RCC_CLOCKTYPE_PCLK2) == RCC_CLOCKTYPE_PCLK2)
 80010c2:	687b      	ldr	r3, [r7, #4]
 80010c4:	681b      	ldr	r3, [r3, #0]
 80010c6:	f003 0308 	and.w	r3, r3, #8
 80010ca:	2b00      	cmp	r3, #0
 80010cc:	d009      	beq.n	80010e2 <HAL_RCC_ClockConfig+0x18e>
  {
    assert_param(IS_RCC_PCLK(RCC_ClkInitStruct->APB2CLKDivider));
    MODIFY_REG(RCC->CFGR, RCC_CFGR_PPRE2, ((RCC_ClkInitStruct->APB2CLKDivider) << 3));
 80010ce:	4b12      	ldr	r3, [pc, #72]	; (8001118 <HAL_RCC_ClockConfig+0x1c4>)
 80010d0:	685b      	ldr	r3, [r3, #4]
 80010d2:	f423 5260 	bic.w	r2, r3, #14336	; 0x3800
 80010d6:	687b      	ldr	r3, [r7, #4]
 80010d8:	691b      	ldr	r3, [r3, #16]
 80010da:	00db      	lsls	r3, r3, #3
 80010dc:	490e      	ldr	r1, [pc, #56]	; (8001118 <HAL_RCC_ClockConfig+0x1c4>)
 80010de:	4313      	orrs	r3, r2
 80010e0:	604b      	str	r3, [r1, #4]
  }

  /* Update the SystemCoreClock global variable */
  SystemCoreClock = HAL_RCC_GetSysClockFreq() >> AHBPrescTable[(RCC->CFGR & RCC_CFGR_HPRE) >> RCC_CFGR_HPRE_Pos];
 80010e2:	f000 f821 	bl	8001128 <HAL_RCC_GetSysClockFreq>
 80010e6:	4602      	mov	r2, r0
 80010e8:	4b0b      	ldr	r3, [pc, #44]	; (8001118 <HAL_RCC_ClockConfig+0x1c4>)
 80010ea:	685b      	ldr	r3, [r3, #4]
 80010ec:	091b      	lsrs	r3, r3, #4
 80010ee:	f003 030f 	and.w	r3, r3, #15
 80010f2:	490a      	ldr	r1, [pc, #40]	; (800111c <HAL_RCC_ClockConfig+0x1c8>)
 80010f4:	5ccb      	ldrb	r3, [r1, r3]
 80010f6:	fa22 f303 	lsr.w	r3, r2, r3
 80010fa:	4a09      	ldr	r2, [pc, #36]	; (8001120 <HAL_RCC_ClockConfig+0x1cc>)
 80010fc:	6013      	str	r3, [r2, #0]

  /* Configure the source of time base considering new system clocks settings*/
  HAL_InitTick(uwTickPrio);
 80010fe:	4b09      	ldr	r3, [pc, #36]	; (8001124 <HAL_RCC_ClockConfig+0x1d0>)
 8001100:	681b      	ldr	r3, [r3, #0]
 8001102:	4618      	mov	r0, r3
 8001104:	f7ff f9b6 	bl	8000474 <HAL_InitTick>

  return HAL_OK;
 8001108:	2300      	movs	r3, #0
}
 800110a:	4618      	mov	r0, r3
 800110c:	3710      	adds	r7, #16
 800110e:	46bd      	mov	sp, r7
 8001110:	bd80      	pop	{r7, pc}
 8001112:	bf00      	nop
 8001114:	40022000 	.word	0x40022000
 8001118:	40021000 	.word	0x40021000
 800111c:	08001a4c 	.word	0x08001a4c
 8001120:	20000000 	.word	0x20000000
 8001124:	20000004 	.word	0x20000004

08001128 <HAL_RCC_GetSysClockFreq>:
  *         right SYSCLK value. Otherwise, any configuration based on this function will be incorrect.
  *
  * @retval SYSCLK frequency
  */
uint32_t HAL_RCC_GetSysClockFreq(void)
{
 8001128:	b480      	push	{r7}
 800112a:	b087      	sub	sp, #28
 800112c:	af00      	add	r7, sp, #0
#else
  static const uint8_t aPredivFactorTable[2U] = {1, 2};
#endif /*RCC_CFGR2_PREDIV1*/

#endif
  uint32_t tmpreg = 0U, prediv = 0U, pllclk = 0U, pllmul = 0U;
 800112e:	2300      	movs	r3, #0
 8001130:	60fb      	str	r3, [r7, #12]
 8001132:	2300      	movs	r3, #0
 8001134:	60bb      	str	r3, [r7, #8]
 8001136:	2300      	movs	r3, #0
 8001138:	617b      	str	r3, [r7, #20]
 800113a:	2300      	movs	r3, #0
 800113c:	607b      	str	r3, [r7, #4]
  uint32_t sysclockfreq = 0U;
 800113e:	2300      	movs	r3, #0
 8001140:	613b      	str	r3, [r7, #16]
#if defined(RCC_CFGR2_PREDIV1SRC)
  uint32_t prediv2 = 0U, pll2mul = 0U;
#endif /*RCC_CFGR2_PREDIV1SRC*/

  tmpreg = RCC->CFGR;
 8001142:	4b1e      	ldr	r3, [pc, #120]	; (80011bc <HAL_RCC_GetSysClockFreq+0x94>)
 8001144:	685b      	ldr	r3, [r3, #4]
 8001146:	60fb      	str	r3, [r7, #12]

  /* Get SYSCLK source -------------------------------------------------------*/
  switch (tmpreg & RCC_CFGR_SWS)
 8001148:	68fb      	ldr	r3, [r7, #12]
 800114a:	f003 030c 	and.w	r3, r3, #12
 800114e:	2b04      	cmp	r3, #4
 8001150:	d002      	beq.n	8001158 <HAL_RCC_GetSysClockFreq+0x30>
 8001152:	2b08      	cmp	r3, #8
 8001154:	d003      	beq.n	800115e <HAL_RCC_GetSysClockFreq+0x36>
 8001156:	e027      	b.n	80011a8 <HAL_RCC_GetSysClockFreq+0x80>
  {
    case RCC_SYSCLKSOURCE_STATUS_HSE:  /* HSE used as system clock */
    {
      sysclockfreq = HSE_VALUE;
 8001158:	4b19      	ldr	r3, [pc, #100]	; (80011c0 <HAL_RCC_GetSysClockFreq+0x98>)
 800115a:	613b      	str	r3, [r7, #16]
      break;
 800115c:	e027      	b.n	80011ae <HAL_RCC_GetSysClockFreq+0x86>
    }
    case RCC_SYSCLKSOURCE_STATUS_PLLCLK:  /* PLL used as system clock */
    {
      pllmul = aPLLMULFactorTable[(uint32_t)(tmpreg & RCC_CFGR_PLLMULL) >> RCC_CFGR_PLLMULL_Pos];
 800115e:	68fb      	ldr	r3, [r7, #12]
 8001160:	0c9b      	lsrs	r3, r3, #18
 8001162:	f003 030f 	and.w	r3, r3, #15
 8001166:	4a17      	ldr	r2, [pc, #92]	; (80011c4 <HAL_RCC_GetSysClockFreq+0x9c>)
 8001168:	5cd3      	ldrb	r3, [r2, r3]
 800116a:	607b      	str	r3, [r7, #4]
      if ((tmpreg & RCC_CFGR_PLLSRC) != RCC_PLLSOURCE_HSI_DIV2)
 800116c:	68fb      	ldr	r3, [r7, #12]
 800116e:	f403 3380 	and.w	r3, r3, #65536	; 0x10000
 8001172:	2b00      	cmp	r3, #0
 8001174:	d010      	beq.n	8001198 <HAL_RCC_GetSysClockFreq+0x70>
      {
#if defined(RCC_CFGR2_PREDIV1)
        prediv = aPredivFactorTable[(uint32_t)(RCC->CFGR2 & RCC_CFGR2_PREDIV1) >> RCC_CFGR2_PREDIV1_Pos];
#else
        prediv = aPredivFactorTable[(uint32_t)(RCC->CFGR & RCC_CFGR_PLLXTPRE) >> RCC_CFGR_PLLXTPRE_Pos];
 8001176:	4b11      	ldr	r3, [pc, #68]	; (80011bc <HAL_RCC_GetSysClockFreq+0x94>)
 8001178:	685b      	ldr	r3, [r3, #4]
 800117a:	0c5b      	lsrs	r3, r3, #17
 800117c:	f003 0301 	and.w	r3, r3, #1
 8001180:	4a11      	ldr	r2, [pc, #68]	; (80011c8 <HAL_RCC_GetSysClockFreq+0xa0>)
 8001182:	5cd3      	ldrb	r3, [r2, r3]
 8001184:	60bb      	str	r3, [r7, #8]
        {
          pllclk = pllclk / 2;
        }
#else
        /* HSE used as PLL clock source : PLLCLK = HSE/PREDIV1 * PLLMUL */
        pllclk = (uint32_t)((HSE_VALUE  * pllmul) / prediv);
 8001186:	687b      	ldr	r3, [r7, #4]
 8001188:	4a0d      	ldr	r2, [pc, #52]	; (80011c0 <HAL_RCC_GetSysClockFreq+0x98>)
 800118a:	fb03 f202 	mul.w	r2, r3, r2
 800118e:	68bb      	ldr	r3, [r7, #8]
 8001190:	fbb2 f3f3 	udiv	r3, r2, r3
 8001194:	617b      	str	r3, [r7, #20]
 8001196:	e004      	b.n	80011a2 <HAL_RCC_GetSysClockFreq+0x7a>
#endif /*RCC_CFGR2_PREDIV1SRC*/
      }
      else
      {
        /* HSI used as PLL clock source : PLLCLK = HSI/2 * PLLMUL */
        pllclk = (uint32_t)((HSI_VALUE >> 1) * pllmul);
 8001198:	687b      	ldr	r3, [r7, #4]
 800119a:	4a0c      	ldr	r2, [pc, #48]	; (80011cc <HAL_RCC_GetSysClockFreq+0xa4>)
 800119c:	fb02 f303 	mul.w	r3, r2, r3
 80011a0:	617b      	str	r3, [r7, #20]
      }
      sysclockfreq = pllclk;
 80011a2:	697b      	ldr	r3, [r7, #20]
 80011a4:	613b      	str	r3, [r7, #16]
      break;
 80011a6:	e002      	b.n	80011ae <HAL_RCC_GetSysClockFreq+0x86>
    }
    case RCC_SYSCLKSOURCE_STATUS_HSI:  /* HSI used as system clock source */
    default: /* HSI used as system clock */
    {
      sysclockfreq = HSI_VALUE;
 80011a8:	4b05      	ldr	r3, [pc, #20]	; (80011c0 <HAL_RCC_GetSysClockFreq+0x98>)
 80011aa:	613b      	str	r3, [r7, #16]
      break;
 80011ac:	bf00      	nop
    }
  }
  return sysclockfreq;
 80011ae:	693b      	ldr	r3, [r7, #16]
}
 80011b0:	4618      	mov	r0, r3
 80011b2:	371c      	adds	r7, #28
 80011b4:	46bd      	mov	sp, r7
 80011b6:	bc80      	pop	{r7}
 80011b8:	4770      	bx	lr
 80011ba:	bf00      	nop
 80011bc:	40021000 	.word	0x40021000
 80011c0:	007a1200 	.word	0x007a1200
 80011c4:	08001a5c 	.word	0x08001a5c
 80011c8:	08001a6c 	.word	0x08001a6c
 80011cc:	003d0900 	.word	0x003d0900

080011d0 <RCC_Delay>:
  * @brief  This function provides delay (in milliseconds) based on CPU cycles method.
  * @param  mdelay: specifies the delay time length, in milliseconds.
  * @retval None
  */
static void RCC_Delay(uint32_t mdelay)
{
 80011d0:	b480      	push	{r7}
 80011d2:	b085      	sub	sp, #20
 80011d4:	af00      	add	r7, sp, #0
 80011d6:	6078      	str	r0, [r7, #4]
  __IO uint32_t Delay = mdelay * (SystemCoreClock / 8U / 1000U);
 80011d8:	4b0a      	ldr	r3, [pc, #40]	; (8001204 <RCC_Delay+0x34>)
 80011da:	681b      	ldr	r3, [r3, #0]
 80011dc:	4a0a      	ldr	r2, [pc, #40]	; (8001208 <RCC_Delay+0x38>)
 80011de:	fba2 2303 	umull	r2, r3, r2, r3
 80011e2:	0a5b      	lsrs	r3, r3, #9
 80011e4:	687a      	ldr	r2, [r7, #4]
 80011e6:	fb02 f303 	mul.w	r3, r2, r3
 80011ea:	60fb      	str	r3, [r7, #12]
  do
  {
    __NOP();
 80011ec:	bf00      	nop
  }
  while (Delay --);
 80011ee:	68fb      	ldr	r3, [r7, #12]
 80011f0:	1e5a      	subs	r2, r3, #1
 80011f2:	60fa      	str	r2, [r7, #12]
 80011f4:	2b00      	cmp	r3, #0
 80011f6:	d1f9      	bne.n	80011ec <RCC_Delay+0x1c>
}
 80011f8:	bf00      	nop
 80011fa:	bf00      	nop
 80011fc:	3714      	adds	r7, #20
 80011fe:	46bd      	mov	sp, r7
 8001200:	bc80      	pop	{r7}
 8001202:	4770      	bx	lr
 8001204:	20000000 	.word	0x20000000
 8001208:	10624dd3 	.word	0x10624dd3

0800120c <HAL_TIM_Base_Init>:
  *         Ex: call @ref HAL_TIM_Base_DeInit() before HAL_TIM_Base_Init()
  * @param  htim TIM Base handle
  * @retval HAL status
  */
HAL_StatusTypeDef HAL_TIM_Base_Init(TIM_HandleTypeDef *htim)
{
 800120c:	b580      	push	{r7, lr}
 800120e:	b082      	sub	sp, #8
 8001210:	af00      	add	r7, sp, #0
 8001212:	6078      	str	r0, [r7, #4]
  /* Check the TIM handle allocation */
  if (htim == NULL)
 8001214:	687b      	ldr	r3, [r7, #4]
 8001216:	2b00      	cmp	r3, #0
 8001218:	d101      	bne.n	800121e <HAL_TIM_Base_Init+0x12>
  {
    return HAL_ERROR;
 800121a:	2301      	movs	r3, #1
 800121c:	e041      	b.n	80012a2 <HAL_TIM_Base_Init+0x96>
  assert_param(IS_TIM_COUNTER_MODE(htim->Init.CounterMode));
  assert_param(IS_TIM_CLOCKDIVISION_DIV(htim->Init.ClockDivision));
  assert_param(IS_TIM_PERIOD(htim->Init.Period));
  assert_param(IS_TIM_AUTORELOAD_PRELOAD(htim->Init.AutoReloadPreload));

  if (htim->State == HAL_TIM_STATE_RESET)
 800121e:	687b      	ldr	r3, [r7, #4]
 8001220:	f893 303d 	ldrb.w	r3, [r3, #61]	; 0x3d
 8001224:	b2db      	uxtb	r3, r3
 8001226:	2b00      	cmp	r3, #0
 8001228:	d106      	bne.n	8001238 <HAL_TIM_Base_Init+0x2c>
  {
    /* Allocate lock resource and initialize it */
    htim->Lock = HAL_UNLOCKED;
 800122a:	687b      	ldr	r3, [r7, #4]
 800122c:	2200      	movs	r2, #0
 800122e:	f883 203c 	strb.w	r2, [r3, #60]	; 0x3c
    }
    /* Init the low level hardware : GPIO, CLOCK, NVIC */
    htim->Base_MspInitCallback(htim);
#else
    /* Init the low level hardware : GPIO, CLOCK, NVIC */
    HAL_TIM_Base_MspInit(htim);
 8001232:	6878      	ldr	r0, [r7, #4]
 8001234:	f7ff f886 	bl	8000344 <HAL_TIM_Base_MspInit>
#endif /* USE_HAL_TIM_REGISTER_CALLBACKS */
  }

  /* Set the TIM state */
  htim->State = HAL_TIM_STATE_BUSY;
 8001238:	687b      	ldr	r3, [r7, #4]
 800123a:	2202      	movs	r2, #2
 800123c:	f883 203d 	strb.w	r2, [r3, #61]	; 0x3d

  /* Set the Time Base configuration */
  TIM_Base_SetConfig(htim->Instance, &htim->Init);
 8001240:	687b      	ldr	r3, [r7, #4]
 8001242:	681a      	ldr	r2, [r3, #0]
 8001244:	687b      	ldr	r3, [r7, #4]
 8001246:	3304      	adds	r3, #4
 8001248:	4619      	mov	r1, r3
 800124a:	4610      	mov	r0, r2
 800124c:	f000 fa6e 	bl	800172c <TIM_Base_SetConfig>

  /* Initialize the DMA burst operation state */
  htim->DMABurstState = HAL_DMA_BURST_STATE_READY;
 8001250:	687b      	ldr	r3, [r7, #4]
 8001252:	2201      	movs	r2, #1
 8001254:	f883 2046 	strb.w	r2, [r3, #70]	; 0x46

  /* Initialize the TIM channels state */
  TIM_CHANNEL_STATE_SET_ALL(htim, HAL_TIM_CHANNEL_STATE_READY);
 8001258:	687b      	ldr	r3, [r7, #4]
 800125a:	2201      	movs	r2, #1
 800125c:	f883 203e 	strb.w	r2, [r3, #62]	; 0x3e
 8001260:	687b      	ldr	r3, [r7, #4]
 8001262:	2201      	movs	r2, #1
 8001264:	f883 203f 	strb.w	r2, [r3, #63]	; 0x3f
 8001268:	687b      	ldr	r3, [r7, #4]
 800126a:	2201      	movs	r2, #1
 800126c:	f883 2040 	strb.w	r2, [r3, #64]	; 0x40
 8001270:	687b      	ldr	r3, [r7, #4]
 8001272:	2201      	movs	r2, #1
 8001274:	f883 2041 	strb.w	r2, [r3, #65]	; 0x41
  TIM_CHANNEL_N_STATE_SET_ALL(htim, HAL_TIM_CHANNEL_STATE_READY);
 8001278:	687b      	ldr	r3, [r7, #4]
 800127a:	2201      	movs	r2, #1
 800127c:	f883 2042 	strb.w	r2, [r3, #66]	; 0x42
 8001280:	687b      	ldr	r3, [r7, #4]
 8001282:	2201      	movs	r2, #1
 8001284:	f883 2043 	strb.w	r2, [r3, #67]	; 0x43
 8001288:	687b      	ldr	r3, [r7, #4]
 800128a:	2201      	movs	r2, #1
 800128c:	f883 2044 	strb.w	r2, [r3, #68]	; 0x44
 8001290:	687b      	ldr	r3, [r7, #4]
 8001292:	2201      	movs	r2, #1
 8001294:	f883 2045 	strb.w	r2, [r3, #69]	; 0x45

  /* Initialize the TIM state*/
  htim->State = HAL_TIM_STATE_READY;
 8001298:	687b      	ldr	r3, [r7, #4]
 800129a:	2201      	movs	r2, #1
 800129c:	f883 203d 	strb.w	r2, [r3, #61]	; 0x3d

  return HAL_OK;
 80012a0:	2300      	movs	r3, #0
}
 80012a2:	4618      	mov	r0, r3
 80012a4:	3708      	adds	r7, #8
 80012a6:	46bd      	mov	sp, r7
 80012a8:	bd80      	pop	{r7, pc}
	...

080012ac <HAL_TIM_Base_Start_IT>:
  * @brief  Starts the TIM Base generation in interrupt mode.
  * @param  htim TIM Base handle
  * @retval HAL status
  */
HAL_StatusTypeDef HAL_TIM_Base_Start_IT(TIM_HandleTypeDef *htim)
{
 80012ac:	b480      	push	{r7}
 80012ae:	b085      	sub	sp, #20
 80012b0:	af00      	add	r7, sp, #0
 80012b2:	6078      	str	r0, [r7, #4]

  /* Check the parameters */
  assert_param(IS_TIM_INSTANCE(htim->Instance));

  /* Check the TIM state */
  if (htim->State != HAL_TIM_STATE_READY)
 80012b4:	687b      	ldr	r3, [r7, #4]
 80012b6:	f893 303d 	ldrb.w	r3, [r3, #61]	; 0x3d
 80012ba:	b2db      	uxtb	r3, r3
 80012bc:	2b01      	cmp	r3, #1
 80012be:	d001      	beq.n	80012c4 <HAL_TIM_Base_Start_IT+0x18>
  {
    return HAL_ERROR;
 80012c0:	2301      	movs	r3, #1
 80012c2:	e035      	b.n	8001330 <HAL_TIM_Base_Start_IT+0x84>
  }

  /* Set the TIM state */
  htim->State = HAL_TIM_STATE_BUSY;
 80012c4:	687b      	ldr	r3, [r7, #4]
 80012c6:	2202      	movs	r2, #2
 80012c8:	f883 203d 	strb.w	r2, [r3, #61]	; 0x3d

  /* Enable the TIM Update interrupt */
  __HAL_TIM_ENABLE_IT(htim, TIM_IT_UPDATE);
 80012cc:	687b      	ldr	r3, [r7, #4]
 80012ce:	681b      	ldr	r3, [r3, #0]
 80012d0:	68da      	ldr	r2, [r3, #12]
 80012d2:	687b      	ldr	r3, [r7, #4]
 80012d4:	681b      	ldr	r3, [r3, #0]
 80012d6:	f042 0201 	orr.w	r2, r2, #1
 80012da:	60da      	str	r2, [r3, #12]

  /* Enable the Peripheral, except in trigger mode where enable is automatically done with trigger */
  if (IS_TIM_SLAVE_INSTANCE(htim->Instance))
 80012dc:	687b      	ldr	r3, [r7, #4]
 80012de:	681b      	ldr	r3, [r3, #0]
 80012e0:	4a16      	ldr	r2, [pc, #88]	; (800133c <HAL_TIM_Base_Start_IT+0x90>)
 80012e2:	4293      	cmp	r3, r2
 80012e4:	d009      	beq.n	80012fa <HAL_TIM_Base_Start_IT+0x4e>
 80012e6:	687b      	ldr	r3, [r7, #4]
 80012e8:	681b      	ldr	r3, [r3, #0]
 80012ea:	f1b3 4f80 	cmp.w	r3, #1073741824	; 0x40000000
 80012ee:	d004      	beq.n	80012fa <HAL_TIM_Base_Start_IT+0x4e>
 80012f0:	687b      	ldr	r3, [r7, #4]
 80012f2:	681b      	ldr	r3, [r3, #0]
 80012f4:	4a12      	ldr	r2, [pc, #72]	; (8001340 <HAL_TIM_Base_Start_IT+0x94>)
 80012f6:	4293      	cmp	r3, r2
 80012f8:	d111      	bne.n	800131e <HAL_TIM_Base_Start_IT+0x72>
  {
    tmpsmcr = htim->Instance->SMCR & TIM_SMCR_SMS;
 80012fa:	687b      	ldr	r3, [r7, #4]
 80012fc:	681b      	ldr	r3, [r3, #0]
 80012fe:	689b      	ldr	r3, [r3, #8]
 8001300:	f003 0307 	and.w	r3, r3, #7
 8001304:	60fb      	str	r3, [r7, #12]
    if (!IS_TIM_SLAVEMODE_TRIGGER_ENABLED(tmpsmcr))
 8001306:	68fb      	ldr	r3, [r7, #12]
 8001308:	2b06      	cmp	r3, #6
 800130a:	d010      	beq.n	800132e <HAL_TIM_Base_Start_IT+0x82>
    {
      __HAL_TIM_ENABLE(htim);
 800130c:	687b      	ldr	r3, [r7, #4]
 800130e:	681b      	ldr	r3, [r3, #0]
 8001310:	681a      	ldr	r2, [r3, #0]
 8001312:	687b      	ldr	r3, [r7, #4]
 8001314:	681b      	ldr	r3, [r3, #0]
 8001316:	f042 0201 	orr.w	r2, r2, #1
 800131a:	601a      	str	r2, [r3, #0]
    if (!IS_TIM_SLAVEMODE_TRIGGER_ENABLED(tmpsmcr))
 800131c:	e007      	b.n	800132e <HAL_TIM_Base_Start_IT+0x82>
    }
  }
  else
  {
    __HAL_TIM_ENABLE(htim);
 800131e:	687b      	ldr	r3, [r7, #4]
 8001320:	681b      	ldr	r3, [r3, #0]
 8001322:	681a      	ldr	r2, [r3, #0]
 8001324:	687b      	ldr	r3, [r7, #4]
 8001326:	681b      	ldr	r3, [r3, #0]
 8001328:	f042 0201 	orr.w	r2, r2, #1
 800132c:	601a      	str	r2, [r3, #0]
  }

  /* Return function status */
  return HAL_OK;
 800132e:	2300      	movs	r3, #0
}
 8001330:	4618      	mov	r0, r3
 8001332:	3714      	adds	r7, #20
 8001334:	46bd      	mov	sp, r7
 8001336:	bc80      	pop	{r7}
 8001338:	4770      	bx	lr
 800133a:	bf00      	nop
 800133c:	40012c00 	.word	0x40012c00
 8001340:	40000400 	.word	0x40000400

08001344 <HAL_TIM_IRQHandler>:
  * @brief  This function handles TIM interrupts requests.
  * @param  htim TIM  handle
  * @retval None
  */
void HAL_TIM_IRQHandler(TIM_HandleTypeDef *htim)
{
 8001344:	b580      	push	{r7, lr}
 8001346:	b082      	sub	sp, #8
 8001348:	af00      	add	r7, sp, #0
 800134a:	6078      	str	r0, [r7, #4]
  /* Capture compare 1 event */
  if (__HAL_TIM_GET_FLAG(htim, TIM_FLAG_CC1) != RESET)
 800134c:	687b      	ldr	r3, [r7, #4]
 800134e:	681b      	ldr	r3, [r3, #0]
 8001350:	691b      	ldr	r3, [r3, #16]
 8001352:	f003 0302 	and.w	r3, r3, #2
 8001356:	2b02      	cmp	r3, #2
 8001358:	d122      	bne.n	80013a0 <HAL_TIM_IRQHandler+0x5c>
  {
    if (__HAL_TIM_GET_IT_SOURCE(htim, TIM_IT_CC1) != RESET)
 800135a:	687b      	ldr	r3, [r7, #4]
 800135c:	681b      	ldr	r3, [r3, #0]
 800135e:	68db      	ldr	r3, [r3, #12]
 8001360:	f003 0302 	and.w	r3, r3, #2
 8001364:	2b02      	cmp	r3, #2
 8001366:	d11b      	bne.n	80013a0 <HAL_TIM_IRQHandler+0x5c>
    {
      {
        __HAL_TIM_CLEAR_IT(htim, TIM_IT_CC1);
 8001368:	687b      	ldr	r3, [r7, #4]
 800136a:	681b      	ldr	r3, [r3, #0]
 800136c:	f06f 0202 	mvn.w	r2, #2
 8001370:	611a      	str	r2, [r3, #16]
        htim->Channel = HAL_TIM_ACTIVE_CHANNEL_1;
 8001372:	687b      	ldr	r3, [r7, #4]
 8001374:	2201      	movs	r2, #1
 8001376:	771a      	strb	r2, [r3, #28]

        /* Input capture event */
        if ((htim->Instance->CCMR1 & TIM_CCMR1_CC1S) != 0x00U)
 8001378:	687b      	ldr	r3, [r7, #4]
 800137a:	681b      	ldr	r3, [r3, #0]
 800137c:	699b      	ldr	r3, [r3, #24]
 800137e:	f003 0303 	and.w	r3, r3, #3
 8001382:	2b00      	cmp	r3, #0
 8001384:	d003      	beq.n	800138e <HAL_TIM_IRQHandler+0x4a>
        {
#if (USE_HAL_TIM_REGISTER_CALLBACKS == 1)
          htim->IC_CaptureCallback(htim);
#else
          HAL_TIM_IC_CaptureCallback(htim);
 8001386:	6878      	ldr	r0, [r7, #4]
 8001388:	f000 f9b4 	bl	80016f4 <HAL_TIM_IC_CaptureCallback>
 800138c:	e005      	b.n	800139a <HAL_TIM_IRQHandler+0x56>
        {
#if (USE_HAL_TIM_REGISTER_CALLBACKS == 1)
          htim->OC_DelayElapsedCallback(htim);
          htim->PWM_PulseFinishedCallback(htim);
#else
          HAL_TIM_OC_DelayElapsedCallback(htim);
 800138e:	6878      	ldr	r0, [r7, #4]
 8001390:	f000 f9a7 	bl	80016e2 <HAL_TIM_OC_DelayElapsedCallback>
          HAL_TIM_PWM_PulseFinishedCallback(htim);
 8001394:	6878      	ldr	r0, [r7, #4]
 8001396:	f000 f9b6 	bl	8001706 <HAL_TIM_PWM_PulseFinishedCallback>
#endif /* USE_HAL_TIM_REGISTER_CALLBACKS */
        }
        htim->Channel = HAL_TIM_ACTIVE_CHANNEL_CLEARED;
 800139a:	687b      	ldr	r3, [r7, #4]
 800139c:	2200      	movs	r2, #0
 800139e:	771a      	strb	r2, [r3, #28]
      }
    }
  }
  /* Capture compare 2 event */
  if (__HAL_TIM_GET_FLAG(htim, TIM_FLAG_CC2) != RESET)
 80013a0:	687b      	ldr	r3, [r7, #4]
 80013a2:	681b      	ldr	r3, [r3, #0]
 80013a4:	691b      	ldr	r3, [r3, #16]
 80013a6:	f003 0304 	and.w	r3, r3, #4
 80013aa:	2b04      	cmp	r3, #4
 80013ac:	d122      	bne.n	80013f4 <HAL_TIM_IRQHandler+0xb0>
  {
    if (__HAL_TIM_GET_IT_SOURCE(htim, TIM_IT_CC2) != RESET)
 80013ae:	687b      	ldr	r3, [r7, #4]
 80013b0:	681b      	ldr	r3, [r3, #0]
 80013b2:	68db      	ldr	r3, [r3, #12]
 80013b4:	f003 0304 	and.w	r3, r3, #4
 80013b8:	2b04      	cmp	r3, #4
 80013ba:	d11b      	bne.n	80013f4 <HAL_TIM_IRQHandler+0xb0>
    {
      __HAL_TIM_CLEAR_IT(htim, TIM_IT_CC2);
 80013bc:	687b      	ldr	r3, [r7, #4]
 80013be:	681b      	ldr	r3, [r3, #0]
 80013c0:	f06f 0204 	mvn.w	r2, #4
 80013c4:	611a      	str	r2, [r3, #16]
      htim->Channel = HAL_TIM_ACTIVE_CHANNEL_2;
 80013c6:	687b      	ldr	r3, [r7, #4]
 80013c8:	2202      	movs	r2, #2
 80013ca:	771a      	strb	r2, [r3, #28]
      /* Input capture event */
      if ((htim->Instance->CCMR1 & TIM_CCMR1_CC2S) != 0x00U)
 80013cc:	687b      	ldr	r3, [r7, #4]
 80013ce:	681b      	ldr	r3, [r3, #0]
 80013d0:	699b      	ldr	r3, [r3, #24]
 80013d2:	f403 7340 	and.w	r3, r3, #768	; 0x300
 80013d6:	2b00      	cmp	r3, #0
 80013d8:	d003      	beq.n	80013e2 <HAL_TIM_IRQHandler+0x9e>
      {
#if (USE_HAL_TIM_REGISTER_CALLBACKS == 1)
        htim->IC_CaptureCallback(htim);
#else
        HAL_TIM_IC_CaptureCallback(htim);
 80013da:	6878      	ldr	r0, [r7, #4]
 80013dc:	f000 f98a 	bl	80016f4 <HAL_TIM_IC_CaptureCallback>
 80013e0:	e005      	b.n	80013ee <HAL_TIM_IRQHandler+0xaa>
      {
#if (USE_HAL_TIM_REGISTER_CALLBACKS == 1)
        htim->OC_DelayElapsedCallback(htim);
        htim->PWM_PulseFinishedCallback(htim);
#else
        HAL_TIM_OC_DelayElapsedCallback(htim);
 80013e2:	6878      	ldr	r0, [r7, #4]
 80013e4:	f000 f97d 	bl	80016e2 <HAL_TIM_OC_DelayElapsedCallback>
        HAL_TIM_PWM_PulseFinishedCallback(htim);
 80013e8:	6878      	ldr	r0, [r7, #4]
 80013ea:	f000 f98c 	bl	8001706 <HAL_TIM_PWM_PulseFinishedCallback>
#endif /* USE_HAL_TIM_REGISTER_CALLBACKS */
      }
      htim->Channel = HAL_TIM_ACTIVE_CHANNEL_CLEARED;
 80013ee:	687b      	ldr	r3, [r7, #4]
 80013f0:	2200      	movs	r2, #0
 80013f2:	771a      	strb	r2, [r3, #28]
    }
  }
  /* Capture compare 3 event */
  if (__HAL_TIM_GET_FLAG(htim, TIM_FLAG_CC3) != RESET)
 80013f4:	687b      	ldr	r3, [r7, #4]
 80013f6:	681b      	ldr	r3, [r3, #0]
 80013f8:	691b      	ldr	r3, [r3, #16]
 80013fa:	f003 0308 	and.w	r3, r3, #8
 80013fe:	2b08      	cmp	r3, #8
 8001400:	d122      	bne.n	8001448 <HAL_TIM_IRQHandler+0x104>
  {
    if (__HAL_TIM_GET_IT_SOURCE(htim, TIM_IT_CC3) != RESET)
 8001402:	687b      	ldr	r3, [r7, #4]
 8001404:	681b      	ldr	r3, [r3, #0]
 8001406:	68db      	ldr	r3, [r3, #12]
 8001408:	f003 0308 	and.w	r3, r3, #8
 800140c:	2b08      	cmp	r3, #8
 800140e:	d11b      	bne.n	8001448 <HAL_TIM_IRQHandler+0x104>
    {
      __HAL_TIM_CLEAR_IT(htim, TIM_IT_CC3);
 8001410:	687b      	ldr	r3, [r7, #4]
 8001412:	681b      	ldr	r3, [r3, #0]
 8001414:	f06f 0208 	mvn.w	r2, #8
 8001418:	611a      	str	r2, [r3, #16]
      htim->Channel = HAL_TIM_ACTIVE_CHANNEL_3;
 800141a:	687b      	ldr	r3, [r7, #4]
 800141c:	2204      	movs	r2, #4
 800141e:	771a      	strb	r2, [r3, #28]
      /* Input capture event */
      if ((htim->Instance->CCMR2 & TIM_CCMR2_CC3S) != 0x00U)
 8001420:	687b      	ldr	r3, [r7, #4]
 8001422:	681b      	ldr	r3, [r3, #0]
 8001424:	69db      	ldr	r3, [r3, #28]
 8001426:	f003 0303 	and.w	r3, r3, #3
 800142a:	2b00      	cmp	r3, #0
 800142c:	d003      	beq.n	8001436 <HAL_TIM_IRQHandler+0xf2>
      {
#if (USE_HAL_TIM_REGISTER_CALLBACKS == 1)
        htim->IC_CaptureCallback(htim);
#else
        HAL_TIM_IC_CaptureCallback(htim);
 800142e:	6878      	ldr	r0, [r7, #4]
 8001430:	f000 f960 	bl	80016f4 <HAL_TIM_IC_CaptureCallback>
 8001434:	e005      	b.n	8001442 <HAL_TIM_IRQHandler+0xfe>
      {
#if (USE_HAL_TIM_REGISTER_CALLBACKS == 1)
        htim->OC_DelayElapsedCallback(htim);
        htim->PWM_PulseFinishedCallback(htim);
#else
        HAL_TIM_OC_DelayElapsedCallback(htim);
 8001436:	6878      	ldr	r0, [r7, #4]
 8001438:	f000 f953 	bl	80016e2 <HAL_TIM_OC_DelayElapsedCallback>
        HAL_TIM_PWM_PulseFinishedCallback(htim);
 800143c:	6878      	ldr	r0, [r7, #4]
 800143e:	f000 f962 	bl	8001706 <HAL_TIM_PWM_PulseFinishedCallback>
#endif /* USE_HAL_TIM_REGISTER_CALLBACKS */
      }
      htim->Channel = HAL_TIM_ACTIVE_CHANNEL_CLEARED;
 8001442:	687b      	ldr	r3, [r7, #4]
 8001444:	2200      	movs	r2, #0
 8001446:	771a      	strb	r2, [r3, #28]
    }
  }
  /* Capture compare 4 event */
  if (__HAL_TIM_GET_FLAG(htim, TIM_FLAG_CC4) != RESET)
 8001448:	687b      	ldr	r3, [r7, #4]
 800144a:	681b      	ldr	r3, [r3, #0]
 800144c:	691b      	ldr	r3, [r3, #16]
 800144e:	f003 0310 	and.w	r3, r3, #16
 8001452:	2b10      	cmp	r3, #16
 8001454:	d122      	bne.n	800149c <HAL_TIM_IRQHandler+0x158>
  {
    if (__HAL_TIM_GET_IT_SOURCE(htim, TIM_IT_CC4) != RESET)
 8001456:	687b      	ldr	r3, [r7, #4]
 8001458:	681b      	ldr	r3, [r3, #0]
 800145a:	68db      	ldr	r3, [r3, #12]
 800145c:	f003 0310 	and.w	r3, r3, #16
 8001460:	2b10      	cmp	r3, #16
 8001462:	d11b      	bne.n	800149c <HAL_TIM_IRQHandler+0x158>
    {
      __HAL_TIM_CLEAR_IT(htim, TIM_IT_CC4);
 8001464:	687b      	ldr	r3, [r7, #4]
 8001466:	681b      	ldr	r3, [r3, #0]
 8001468:	f06f 0210 	mvn.w	r2, #16
 800146c:	611a      	str	r2, [r3, #16]
      htim->Channel = HAL_TIM_ACTIVE_CHANNEL_4;
 800146e:	687b      	ldr	r3, [r7, #4]
 8001470:	2208      	movs	r2, #8
 8001472:	771a      	strb	r2, [r3, #28]
      /* Input capture event */
      if ((htim->Instance->CCMR2 & TIM_CCMR2_CC4S) != 0x00U)
 8001474:	687b      	ldr	r3, [r7, #4]
 8001476:	681b      	ldr	r3, [r3, #0]
 8001478:	69db      	ldr	r3, [r3, #28]
 800147a:	f403 7340 	and.w	r3, r3, #768	; 0x300
 800147e:	2b00      	cmp	r3, #0
 8001480:	d003      	beq.n	800148a <HAL_TIM_IRQHandler+0x146>
      {
#if (USE_HAL_TIM_REGISTER_CALLBACKS == 1)
        htim->IC_CaptureCallback(htim);
#else
        HAL_TIM_IC_CaptureCallback(htim);
 8001482:	6878      	ldr	r0, [r7, #4]
 8001484:	f000 f936 	bl	80016f4 <HAL_TIM_IC_CaptureCallback>
 8001488:	e005      	b.n	8001496 <HAL_TIM_IRQHandler+0x152>
      {
#if (USE_HAL_TIM_REGISTER_CALLBACKS == 1)
        htim->OC_DelayElapsedCallback(htim);
        htim->PWM_PulseFinishedCallback(htim);
#else
        HAL_TIM_OC_DelayElapsedCallback(htim);
 800148a:	6878      	ldr	r0, [r7, #4]
 800148c:	f000 f929 	bl	80016e2 <HAL_TIM_OC_DelayElapsedCallback>
        HAL_TIM_PWM_PulseFinishedCallback(htim);
 8001490:	6878      	ldr	r0, [r7, #4]
 8001492:	f000 f938 	bl	8001706 <HAL_TIM_PWM_PulseFinishedCallback>
#endif /* USE_HAL_TIM_REGISTER_CALLBACKS */
      }
      htim->Channel = HAL_TIM_ACTIVE_CHANNEL_CLEARED;
 8001496:	687b      	ldr	r3, [r7, #4]
 8001498:	2200      	movs	r2, #0
 800149a:	771a      	strb	r2, [r3, #28]
    }
  }
  /* TIM Update event */
  if (__HAL_TIM_GET_FLAG(htim, TIM_FLAG_UPDATE) != RESET)
 800149c:	687b      	ldr	r3, [r7, #4]
 800149e:	681b      	ldr	r3, [r3, #0]
 80014a0:	691b      	ldr	r3, [r3, #16]
 80014a2:	f003 0301 	and.w	r3, r3, #1
 80014a6:	2b01      	cmp	r3, #1
 80014a8:	d10e      	bne.n	80014c8 <HAL_TIM_IRQHandler+0x184>
  {
    if (__HAL_TIM_GET_IT_SOURCE(htim, TIM_IT_UPDATE) != RESET)
 80014aa:	687b      	ldr	r3, [r7, #4]
 80014ac:	681b      	ldr	r3, [r3, #0]
 80014ae:	68db      	ldr	r3, [r3, #12]
 80014b0:	f003 0301 	and.w	r3, r3, #1
 80014b4:	2b01      	cmp	r3, #1
 80014b6:	d107      	bne.n	80014c8 <HAL_TIM_IRQHandler+0x184>
    {
      __HAL_TIM_CLEAR_IT(htim, TIM_IT_UPDATE);
 80014b8:	687b      	ldr	r3, [r7, #4]
 80014ba:	681b      	ldr	r3, [r3, #0]
 80014bc:	f06f 0201 	mvn.w	r2, #1
 80014c0:	611a      	str	r2, [r3, #16]
#if (USE_HAL_TIM_REGISTER_CALLBACKS == 1)
      htim->PeriodElapsedCallback(htim);
#else
      HAL_TIM_PeriodElapsedCallback(htim);
 80014c2:	6878      	ldr	r0, [r7, #4]
 80014c4:	f7fe ff0e 	bl	80002e4 <HAL_TIM_PeriodElapsedCallback>
#endif /* USE_HAL_TIM_REGISTER_CALLBACKS */
    }
  }
  /* TIM Break input event */
  if (__HAL_TIM_GET_FLAG(htim, TIM_FLAG_BREAK) != RESET)
 80014c8:	687b      	ldr	r3, [r7, #4]
 80014ca:	681b      	ldr	r3, [r3, #0]
 80014cc:	691b      	ldr	r3, [r3, #16]
 80014ce:	f003 0380 	and.w	r3, r3, #128	; 0x80
 80014d2:	2b80      	cmp	r3, #128	; 0x80
 80014d4:	d10e      	bne.n	80014f4 <HAL_TIM_IRQHandler+0x1b0>
  {
    if (__HAL_TIM_GET_IT_SOURCE(htim, TIM_IT_BREAK) != RESET)
 80014d6:	687b      	ldr	r3, [r7, #4]
 80014d8:	681b      	ldr	r3, [r3, #0]
 80014da:	68db      	ldr	r3, [r3, #12]
 80014dc:	f003 0380 	and.w	r3, r3, #128	; 0x80
 80014e0:	2b80      	cmp	r3, #128	; 0x80
 80014e2:	d107      	bne.n	80014f4 <HAL_TIM_IRQHandler+0x1b0>
    {
      __HAL_TIM_CLEAR_IT(htim, TIM_IT_BREAK);
 80014e4:	687b      	ldr	r3, [r7, #4]
 80014e6:	681b      	ldr	r3, [r3, #0]
 80014e8:	f06f 0280 	mvn.w	r2, #128	; 0x80
 80014ec:	611a      	str	r2, [r3, #16]
#if (USE_HAL_TIM_REGISTER_CALLBACKS == 1)
      htim->BreakCallback(htim);
#else
      HAL_TIMEx_BreakCallback(htim);
 80014ee:	6878      	ldr	r0, [r7, #4]
 80014f0:	f000 fa6b 	bl	80019ca <HAL_TIMEx_BreakCallback>
#endif /* USE_HAL_TIM_REGISTER_CALLBACKS */
    }
  }
  /* TIM Trigger detection event */
  if (__HAL_TIM_GET_FLAG(htim, TIM_FLAG_TRIGGER) != RESET)
 80014f4:	687b      	ldr	r3, [r7, #4]
 80014f6:	681b      	ldr	r3, [r3, #0]
 80014f8:	691b      	ldr	r3, [r3, #16]
 80014fa:	f003 0340 	and.w	r3, r3, #64	; 0x40
 80014fe:	2b40      	cmp	r3, #64	; 0x40
 8001500:	d10e      	bne.n	8001520 <HAL_TIM_IRQHandler+0x1dc>
  {
    if (__HAL_TIM_GET_IT_SOURCE(htim, TIM_IT_TRIGGER) != RESET)
 8001502:	687b      	ldr	r3, [r7, #4]
 8001504:	681b      	ldr	r3, [r3, #0]
 8001506:	68db      	ldr	r3, [r3, #12]
 8001508:	f003 0340 	and.w	r3, r3, #64	; 0x40
 800150c:	2b40      	cmp	r3, #64	; 0x40
 800150e:	d107      	bne.n	8001520 <HAL_TIM_IRQHandler+0x1dc>
    {
      __HAL_TIM_CLEAR_IT(htim, TIM_IT_TRIGGER);
 8001510:	687b      	ldr	r3, [r7, #4]
 8001512:	681b      	ldr	r3, [r3, #0]
 8001514:	f06f 0240 	mvn.w	r2, #64	; 0x40
 8001518:	611a      	str	r2, [r3, #16]
#if (USE_HAL_TIM_REGISTER_CALLBACKS == 1)
      htim->TriggerCallback(htim);
#else
      HAL_TIM_TriggerCallback(htim);
 800151a:	6878      	ldr	r0, [r7, #4]
 800151c:	f000 f8fc 	bl	8001718 <HAL_TIM_TriggerCallback>
#endif /* USE_HAL_TIM_REGISTER_CALLBACKS */
    }
  }
  /* TIM commutation event */
  if (__HAL_TIM_GET_FLAG(htim, TIM_FLAG_COM) != RESET)
 8001520:	687b      	ldr	r3, [r7, #4]
 8001522:	681b      	ldr	r3, [r3, #0]
 8001524:	691b      	ldr	r3, [r3, #16]
 8001526:	f003 0320 	and.w	r3, r3, #32
 800152a:	2b20      	cmp	r3, #32
 800152c:	d10e      	bne.n	800154c <HAL_TIM_IRQHandler+0x208>
  {
    if (__HAL_TIM_GET_IT_SOURCE(htim, TIM_IT_COM) != RESET)
 800152e:	687b      	ldr	r3, [r7, #4]
 8001530:	681b      	ldr	r3, [r3, #0]
 8001532:	68db      	ldr	r3, [r3, #12]
 8001534:	f003 0320 	and.w	r3, r3, #32
 8001538:	2b20      	cmp	r3, #32
 800153a:	d107      	bne.n	800154c <HAL_TIM_IRQHandler+0x208>
    {
      __HAL_TIM_CLEAR_IT(htim, TIM_FLAG_COM);
 800153c:	687b      	ldr	r3, [r7, #4]
 800153e:	681b      	ldr	r3, [r3, #0]
 8001540:	f06f 0220 	mvn.w	r2, #32
 8001544:	611a      	str	r2, [r3, #16]
#if (USE_HAL_TIM_REGISTER_CALLBACKS == 1)
      htim->CommutationCallback(htim);
#else
      HAL_TIMEx_CommutCallback(htim);
 8001546:	6878      	ldr	r0, [r7, #4]
 8001548:	f000 fa36 	bl	80019b8 <HAL_TIMEx_CommutCallback>
#endif /* USE_HAL_TIM_REGISTER_CALLBACKS */
    }
  }
}
 800154c:	bf00      	nop
 800154e:	3708      	adds	r7, #8
 8001550:	46bd      	mov	sp, r7
 8001552:	bd80      	pop	{r7, pc}

08001554 <HAL_TIM_ConfigClockSource>:
  * @param  sClockSourceConfig pointer to a TIM_ClockConfigTypeDef structure that
  *         contains the clock source information for the TIM peripheral.
  * @retval HAL status
  */
HAL_StatusTypeDef HAL_TIM_ConfigClockSource(TIM_HandleTypeDef *htim, const TIM_ClockConfigTypeDef *sClockSourceConfig)
{
 8001554:	b580      	push	{r7, lr}
 8001556:	b084      	sub	sp, #16
 8001558:	af00      	add	r7, sp, #0
 800155a:	6078      	str	r0, [r7, #4]
 800155c:	6039      	str	r1, [r7, #0]
  HAL_StatusTypeDef status = HAL_OK;
 800155e:	2300      	movs	r3, #0
 8001560:	73fb      	strb	r3, [r7, #15]
  uint32_t tmpsmcr;

  /* Process Locked */
  __HAL_LOCK(htim);
 8001562:	687b      	ldr	r3, [r7, #4]
 8001564:	f893 303c 	ldrb.w	r3, [r3, #60]	; 0x3c
 8001568:	2b01      	cmp	r3, #1
 800156a:	d101      	bne.n	8001570 <HAL_TIM_ConfigClockSource+0x1c>
 800156c:	2302      	movs	r3, #2
 800156e:	e0b4      	b.n	80016da <HAL_TIM_ConfigClockSource+0x186>
 8001570:	687b      	ldr	r3, [r7, #4]
 8001572:	2201      	movs	r2, #1
 8001574:	f883 203c 	strb.w	r2, [r3, #60]	; 0x3c

  htim->State = HAL_TIM_STATE_BUSY;
 8001578:	687b      	ldr	r3, [r7, #4]
 800157a:	2202      	movs	r2, #2
 800157c:	f883 203d 	strb.w	r2, [r3, #61]	; 0x3d

  /* Check the parameters */
  assert_param(IS_TIM_CLOCKSOURCE(sClockSourceConfig->ClockSource));

  /* Reset the SMS, TS, ECE, ETPS and ETRF bits */
  tmpsmcr = htim->Instance->SMCR;
 8001580:	687b      	ldr	r3, [r7, #4]
 8001582:	681b      	ldr	r3, [r3, #0]
 8001584:	689b      	ldr	r3, [r3, #8]
 8001586:	60bb      	str	r3, [r7, #8]
  tmpsmcr &= ~(TIM_SMCR_SMS | TIM_SMCR_TS);
 8001588:	68bb      	ldr	r3, [r7, #8]
 800158a:	f023 0377 	bic.w	r3, r3, #119	; 0x77
 800158e:	60bb      	str	r3, [r7, #8]
  tmpsmcr &= ~(TIM_SMCR_ETF | TIM_SMCR_ETPS | TIM_SMCR_ECE | TIM_SMCR_ETP);
 8001590:	68bb      	ldr	r3, [r7, #8]
 8001592:	f423 437f 	bic.w	r3, r3, #65280	; 0xff00
 8001596:	60bb      	str	r3, [r7, #8]
  htim->Instance->SMCR = tmpsmcr;
 8001598:	687b      	ldr	r3, [r7, #4]
 800159a:	681b      	ldr	r3, [r3, #0]
 800159c:	68ba      	ldr	r2, [r7, #8]
 800159e:	609a      	str	r2, [r3, #8]

  switch (sClockSourceConfig->ClockSource)
 80015a0:	683b      	ldr	r3, [r7, #0]
 80015a2:	681b      	ldr	r3, [r3, #0]
 80015a4:	f5b3 5f00 	cmp.w	r3, #8192	; 0x2000
 80015a8:	d03e      	beq.n	8001628 <HAL_TIM_ConfigClockSource+0xd4>
 80015aa:	f5b3 5f00 	cmp.w	r3, #8192	; 0x2000
 80015ae:	f200 8087 	bhi.w	80016c0 <HAL_TIM_ConfigClockSource+0x16c>
 80015b2:	f5b3 5f80 	cmp.w	r3, #4096	; 0x1000
 80015b6:	f000 8086 	beq.w	80016c6 <HAL_TIM_ConfigClockSource+0x172>
 80015ba:	f5b3 5f80 	cmp.w	r3, #4096	; 0x1000
 80015be:	d87f      	bhi.n	80016c0 <HAL_TIM_ConfigClockSource+0x16c>
 80015c0:	2b70      	cmp	r3, #112	; 0x70
 80015c2:	d01a      	beq.n	80015fa <HAL_TIM_ConfigClockSource+0xa6>
 80015c4:	2b70      	cmp	r3, #112	; 0x70
 80015c6:	d87b      	bhi.n	80016c0 <HAL_TIM_ConfigClockSource+0x16c>
 80015c8:	2b60      	cmp	r3, #96	; 0x60
 80015ca:	d050      	beq.n	800166e <HAL_TIM_ConfigClockSource+0x11a>
 80015cc:	2b60      	cmp	r3, #96	; 0x60
 80015ce:	d877      	bhi.n	80016c0 <HAL_TIM_ConfigClockSource+0x16c>
 80015d0:	2b50      	cmp	r3, #80	; 0x50
 80015d2:	d03c      	beq.n	800164e <HAL_TIM_ConfigClockSource+0xfa>
 80015d4:	2b50      	cmp	r3, #80	; 0x50
 80015d6:	d873      	bhi.n	80016c0 <HAL_TIM_ConfigClockSource+0x16c>
 80015d8:	2b40      	cmp	r3, #64	; 0x40
 80015da:	d058      	beq.n	800168e <HAL_TIM_ConfigClockSource+0x13a>
 80015dc:	2b40      	cmp	r3, #64	; 0x40
 80015de:	d86f      	bhi.n	80016c0 <HAL_TIM_ConfigClockSource+0x16c>
 80015e0:	2b30      	cmp	r3, #48	; 0x30
 80015e2:	d064      	beq.n	80016ae <HAL_TIM_ConfigClockSource+0x15a>
 80015e4:	2b30      	cmp	r3, #48	; 0x30
 80015e6:	d86b      	bhi.n	80016c0 <HAL_TIM_ConfigClockSource+0x16c>
 80015e8:	2b20      	cmp	r3, #32
 80015ea:	d060      	beq.n	80016ae <HAL_TIM_ConfigClockSource+0x15a>
 80015ec:	2b20      	cmp	r3, #32
 80015ee:	d867      	bhi.n	80016c0 <HAL_TIM_ConfigClockSource+0x16c>
 80015f0:	2b00      	cmp	r3, #0
 80015f2:	d05c      	beq.n	80016ae <HAL_TIM_ConfigClockSource+0x15a>
 80015f4:	2b10      	cmp	r3, #16
 80015f6:	d05a      	beq.n	80016ae <HAL_TIM_ConfigClockSource+0x15a>
 80015f8:	e062      	b.n	80016c0 <HAL_TIM_ConfigClockSource+0x16c>
      assert_param(IS_TIM_CLOCKPRESCALER(sClockSourceConfig->ClockPrescaler));
      assert_param(IS_TIM_CLOCKPOLARITY(sClockSourceConfig->ClockPolarity));
      assert_param(IS_TIM_CLOCKFILTER(sClockSourceConfig->ClockFilter));

      /* Configure the ETR Clock source */
      TIM_ETR_SetConfig(htim->Instance,
 80015fa:	687b      	ldr	r3, [r7, #4]
 80015fc:	6818      	ldr	r0, [r3, #0]
 80015fe:	683b      	ldr	r3, [r7, #0]
 8001600:	6899      	ldr	r1, [r3, #8]
 8001602:	683b      	ldr	r3, [r7, #0]
 8001604:	685a      	ldr	r2, [r3, #4]
 8001606:	683b      	ldr	r3, [r7, #0]
 8001608:	68db      	ldr	r3, [r3, #12]
 800160a:	f000 f95e 	bl	80018ca <TIM_ETR_SetConfig>
                        sClockSourceConfig->ClockPrescaler,
                        sClockSourceConfig->ClockPolarity,
                        sClockSourceConfig->ClockFilter);

      /* Select the External clock mode1 and the ETRF trigger */
      tmpsmcr = htim->Instance->SMCR;
 800160e:	687b      	ldr	r3, [r7, #4]
 8001610:	681b      	ldr	r3, [r3, #0]
 8001612:	689b      	ldr	r3, [r3, #8]
 8001614:	60bb      	str	r3, [r7, #8]
      tmpsmcr |= (TIM_SLAVEMODE_EXTERNAL1 | TIM_CLOCKSOURCE_ETRMODE1);
 8001616:	68bb      	ldr	r3, [r7, #8]
 8001618:	f043 0377 	orr.w	r3, r3, #119	; 0x77
 800161c:	60bb      	str	r3, [r7, #8]
      /* Write to TIMx SMCR */
      htim->Instance->SMCR = tmpsmcr;
 800161e:	687b      	ldr	r3, [r7, #4]
 8001620:	681b      	ldr	r3, [r3, #0]
 8001622:	68ba      	ldr	r2, [r7, #8]
 8001624:	609a      	str	r2, [r3, #8]
      break;
 8001626:	e04f      	b.n	80016c8 <HAL_TIM_ConfigClockSource+0x174>
      assert_param(IS_TIM_CLOCKPRESCALER(sClockSourceConfig->ClockPrescaler));
      assert_param(IS_TIM_CLOCKPOLARITY(sClockSourceConfig->ClockPolarity));
      assert_param(IS_TIM_CLOCKFILTER(sClockSourceConfig->ClockFilter));

      /* Configure the ETR Clock source */
      TIM_ETR_SetConfig(htim->Instance,
 8001628:	687b      	ldr	r3, [r7, #4]
 800162a:	6818      	ldr	r0, [r3, #0]
 800162c:	683b      	ldr	r3, [r7, #0]
 800162e:	6899      	ldr	r1, [r3, #8]
 8001630:	683b      	ldr	r3, [r7, #0]
 8001632:	685a      	ldr	r2, [r3, #4]
 8001634:	683b      	ldr	r3, [r7, #0]
 8001636:	68db      	ldr	r3, [r3, #12]
 8001638:	f000 f947 	bl	80018ca <TIM_ETR_SetConfig>
                        sClockSourceConfig->ClockPrescaler,
                        sClockSourceConfig->ClockPolarity,
                        sClockSourceConfig->ClockFilter);
      /* Enable the External clock mode2 */
      htim->Instance->SMCR |= TIM_SMCR_ECE;
 800163c:	687b      	ldr	r3, [r7, #4]
 800163e:	681b      	ldr	r3, [r3, #0]
 8001640:	689a      	ldr	r2, [r3, #8]
 8001642:	687b      	ldr	r3, [r7, #4]
 8001644:	681b      	ldr	r3, [r3, #0]
 8001646:	f442 4280 	orr.w	r2, r2, #16384	; 0x4000
 800164a:	609a      	str	r2, [r3, #8]
      break;
 800164c:	e03c      	b.n	80016c8 <HAL_TIM_ConfigClockSource+0x174>

      /* Check TI1 input conditioning related parameters */
      assert_param(IS_TIM_CLOCKPOLARITY(sClockSourceConfig->ClockPolarity));
      assert_param(IS_TIM_CLOCKFILTER(sClockSourceConfig->ClockFilter));

      TIM_TI1_ConfigInputStage(htim->Instance,
 800164e:	687b      	ldr	r3, [r7, #4]
 8001650:	6818      	ldr	r0, [r3, #0]
 8001652:	683b      	ldr	r3, [r7, #0]
 8001654:	6859      	ldr	r1, [r3, #4]
 8001656:	683b      	ldr	r3, [r7, #0]
 8001658:	68db      	ldr	r3, [r3, #12]
 800165a:	461a      	mov	r2, r3
 800165c:	f000 f8be 	bl	80017dc <TIM_TI1_ConfigInputStage>
                               sClockSourceConfig->ClockPolarity,
                               sClockSourceConfig->ClockFilter);
      TIM_ITRx_SetConfig(htim->Instance, TIM_CLOCKSOURCE_TI1);
 8001660:	687b      	ldr	r3, [r7, #4]
 8001662:	681b      	ldr	r3, [r3, #0]
 8001664:	2150      	movs	r1, #80	; 0x50
 8001666:	4618      	mov	r0, r3
 8001668:	f000 f915 	bl	8001896 <TIM_ITRx_SetConfig>
      break;
 800166c:	e02c      	b.n	80016c8 <HAL_TIM_ConfigClockSource+0x174>

      /* Check TI2 input conditioning related parameters */
      assert_param(IS_TIM_CLOCKPOLARITY(sClockSourceConfig->ClockPolarity));
      assert_param(IS_TIM_CLOCKFILTER(sClockSourceConfig->ClockFilter));

      TIM_TI2_ConfigInputStage(htim->Instance,
 800166e:	687b      	ldr	r3, [r7, #4]
 8001670:	6818      	ldr	r0, [r3, #0]
 8001672:	683b      	ldr	r3, [r7, #0]
 8001674:	6859      	ldr	r1, [r3, #4]
 8001676:	683b      	ldr	r3, [r7, #0]
 8001678:	68db      	ldr	r3, [r3, #12]
 800167a:	461a      	mov	r2, r3
 800167c:	f000 f8dc 	bl	8001838 <TIM_TI2_ConfigInputStage>
                               sClockSourceConfig->ClockPolarity,
                               sClockSourceConfig->ClockFilter);
      TIM_ITRx_SetConfig(htim->Instance, TIM_CLOCKSOURCE_TI2);
 8001680:	687b      	ldr	r3, [r7, #4]
 8001682:	681b      	ldr	r3, [r3, #0]
 8001684:	2160      	movs	r1, #96	; 0x60
 8001686:	4618      	mov	r0, r3
 8001688:	f000 f905 	bl	8001896 <TIM_ITRx_SetConfig>
      break;
 800168c:	e01c      	b.n	80016c8 <HAL_TIM_ConfigClockSource+0x174>

      /* Check TI1 input conditioning related parameters */
      assert_param(IS_TIM_CLOCKPOLARITY(sClockSourceConfig->ClockPolarity));
      assert_param(IS_TIM_CLOCKFILTER(sClockSourceConfig->ClockFilter));

      TIM_TI1_ConfigInputStage(htim->Instance,
 800168e:	687b      	ldr	r3, [r7, #4]
 8001690:	6818      	ldr	r0, [r3, #0]
 8001692:	683b      	ldr	r3, [r7, #0]
 8001694:	6859      	ldr	r1, [r3, #4]
 8001696:	683b      	ldr	r3, [r7, #0]
 8001698:	68db      	ldr	r3, [r3, #12]
 800169a:	461a      	mov	r2, r3
 800169c:	f000 f89e 	bl	80017dc <TIM_TI1_ConfigInputStage>
                               sClockSourceConfig->ClockPolarity,
                               sClockSourceConfig->ClockFilter);
      TIM_ITRx_SetConfig(htim->Instance, TIM_CLOCKSOURCE_TI1ED);
 80016a0:	687b      	ldr	r3, [r7, #4]
 80016a2:	681b      	ldr	r3, [r3, #0]
 80016a4:	2140      	movs	r1, #64	; 0x40
 80016a6:	4618      	mov	r0, r3
 80016a8:	f000 f8f5 	bl	8001896 <TIM_ITRx_SetConfig>
      break;
 80016ac:	e00c      	b.n	80016c8 <HAL_TIM_ConfigClockSource+0x174>
    case TIM_CLOCKSOURCE_ITR3:
    {
      /* Check whether or not the timer instance supports internal trigger input */
      assert_param(IS_TIM_CLOCKSOURCE_ITRX_INSTANCE(htim->Instance));

      TIM_ITRx_SetConfig(htim->Instance, sClockSourceConfig->ClockSource);
 80016ae:	687b      	ldr	r3, [r7, #4]
 80016b0:	681a      	ldr	r2, [r3, #0]
 80016b2:	683b      	ldr	r3, [r7, #0]
 80016b4:	681b      	ldr	r3, [r3, #0]
 80016b6:	4619      	mov	r1, r3
 80016b8:	4610      	mov	r0, r2
 80016ba:	f000 f8ec 	bl	8001896 <TIM_ITRx_SetConfig>
      break;
 80016be:	e003      	b.n	80016c8 <HAL_TIM_ConfigClockSource+0x174>
    }

    default:
      status = HAL_ERROR;
 80016c0:	2301      	movs	r3, #1
 80016c2:	73fb      	strb	r3, [r7, #15]
      break;
 80016c4:	e000      	b.n	80016c8 <HAL_TIM_ConfigClockSource+0x174>
      break;
 80016c6:	bf00      	nop
  }
  htim->State = HAL_TIM_STATE_READY;
 80016c8:	687b      	ldr	r3, [r7, #4]
 80016ca:	2201      	movs	r2, #1
 80016cc:	f883 203d 	strb.w	r2, [r3, #61]	; 0x3d

  __HAL_UNLOCK(htim);
 80016d0:	687b      	ldr	r3, [r7, #4]
 80016d2:	2200      	movs	r2, #0
 80016d4:	f883 203c 	strb.w	r2, [r3, #60]	; 0x3c

  return status;
 80016d8:	7bfb      	ldrb	r3, [r7, #15]
}
 80016da:	4618      	mov	r0, r3
 80016dc:	3710      	adds	r7, #16
 80016de:	46bd      	mov	sp, r7
 80016e0:	bd80      	pop	{r7, pc}

080016e2 <HAL_TIM_OC_DelayElapsedCallback>:
  * @brief  Output Compare callback in non-blocking mode
  * @param  htim TIM OC handle
  * @retval None
  */
__weak void HAL_TIM_OC_DelayElapsedCallback(TIM_HandleTypeDef *htim)
{
 80016e2:	b480      	push	{r7}
 80016e4:	b083      	sub	sp, #12
 80016e6:	af00      	add	r7, sp, #0
 80016e8:	6078      	str	r0, [r7, #4]
  UNUSED(htim);

  /* NOTE : This function should not be modified, when the callback is needed,
            the HAL_TIM_OC_DelayElapsedCallback could be implemented in the user file
   */
}
 80016ea:	bf00      	nop
 80016ec:	370c      	adds	r7, #12
 80016ee:	46bd      	mov	sp, r7
 80016f0:	bc80      	pop	{r7}
 80016f2:	4770      	bx	lr

080016f4 <HAL_TIM_IC_CaptureCallback>:
  * @brief  Input Capture callback in non-blocking mode
  * @param  htim TIM IC handle
  * @retval None
  */
__weak void HAL_TIM_IC_CaptureCallback(TIM_HandleTypeDef *htim)
{
 80016f4:	b480      	push	{r7}
 80016f6:	b083      	sub	sp, #12
 80016f8:	af00      	add	r7, sp, #0
 80016fa:	6078      	str	r0, [r7, #4]
  UNUSED(htim);

  /* NOTE : This function should not be modified, when the callback is needed,
            the HAL_TIM_IC_CaptureCallback could be implemented in the user file
   */
}
 80016fc:	bf00      	nop
 80016fe:	370c      	adds	r7, #12
 8001700:	46bd      	mov	sp, r7
 8001702:	bc80      	pop	{r7}
 8001704:	4770      	bx	lr

08001706 <HAL_TIM_PWM_PulseFinishedCallback>:
  * @brief  PWM Pulse finished callback in non-blocking mode
  * @param  htim TIM handle
  * @retval None
  */
__weak void HAL_TIM_PWM_PulseFinishedCallback(TIM_HandleTypeDef *htim)
{
 8001706:	b480      	push	{r7}
 8001708:	b083      	sub	sp, #12
 800170a:	af00      	add	r7, sp, #0
 800170c:	6078      	str	r0, [r7, #4]
  UNUSED(htim);

  /* NOTE : This function should not be modified, when the callback is needed,
            the HAL_TIM_PWM_PulseFinishedCallback could be implemented in the user file
   */
}
 800170e:	bf00      	nop
 8001710:	370c      	adds	r7, #12
 8001712:	46bd      	mov	sp, r7
 8001714:	bc80      	pop	{r7}
 8001716:	4770      	bx	lr

08001718 <HAL_TIM_TriggerCallback>:
  * @brief  Hall Trigger detection callback in non-blocking mode
  * @param  htim TIM handle
  * @retval None
  */
__weak void HAL_TIM_TriggerCallback(TIM_HandleTypeDef *htim)
{
 8001718:	b480      	push	{r7}
 800171a:	b083      	sub	sp, #12
 800171c:	af00      	add	r7, sp, #0
 800171e:	6078      	str	r0, [r7, #4]
  UNUSED(htim);

  /* NOTE : This function should not be modified, when the callback is needed,
            the HAL_TIM_TriggerCallback could be implemented in the user file
   */
}
 8001720:	bf00      	nop
 8001722:	370c      	adds	r7, #12
 8001724:	46bd      	mov	sp, r7
 8001726:	bc80      	pop	{r7}
 8001728:	4770      	bx	lr
	...

0800172c <TIM_Base_SetConfig>:
  * @param  TIMx TIM peripheral
  * @param  Structure TIM Base configuration structure
  * @retval None
  */
void TIM_Base_SetConfig(TIM_TypeDef *TIMx, const TIM_Base_InitTypeDef *Structure)
{
 800172c:	b480      	push	{r7}
 800172e:	b085      	sub	sp, #20
 8001730:	af00      	add	r7, sp, #0
 8001732:	6078      	str	r0, [r7, #4]
 8001734:	6039      	str	r1, [r7, #0]
  uint32_t tmpcr1;
  tmpcr1 = TIMx->CR1;
 8001736:	687b      	ldr	r3, [r7, #4]
 8001738:	681b      	ldr	r3, [r3, #0]
 800173a:	60fb      	str	r3, [r7, #12]

  /* Set TIM Time Base Unit parameters ---------------------------------------*/
  if (IS_TIM_COUNTER_MODE_SELECT_INSTANCE(TIMx))
 800173c:	687b      	ldr	r3, [r7, #4]
 800173e:	4a25      	ldr	r2, [pc, #148]	; (80017d4 <TIM_Base_SetConfig+0xa8>)
 8001740:	4293      	cmp	r3, r2
 8001742:	d007      	beq.n	8001754 <TIM_Base_SetConfig+0x28>
 8001744:	687b      	ldr	r3, [r7, #4]
 8001746:	f1b3 4f80 	cmp.w	r3, #1073741824	; 0x40000000
 800174a:	d003      	beq.n	8001754 <TIM_Base_SetConfig+0x28>
 800174c:	687b      	ldr	r3, [r7, #4]
 800174e:	4a22      	ldr	r2, [pc, #136]	; (80017d8 <TIM_Base_SetConfig+0xac>)
 8001750:	4293      	cmp	r3, r2
 8001752:	d108      	bne.n	8001766 <TIM_Base_SetConfig+0x3a>
  {
    /* Select the Counter Mode */
    tmpcr1 &= ~(TIM_CR1_DIR | TIM_CR1_CMS);
 8001754:	68fb      	ldr	r3, [r7, #12]
 8001756:	f023 0370 	bic.w	r3, r3, #112	; 0x70
 800175a:	60fb      	str	r3, [r7, #12]
    tmpcr1 |= Structure->CounterMode;
 800175c:	683b      	ldr	r3, [r7, #0]
 800175e:	685b      	ldr	r3, [r3, #4]
 8001760:	68fa      	ldr	r2, [r7, #12]
 8001762:	4313      	orrs	r3, r2
 8001764:	60fb      	str	r3, [r7, #12]
  }

  if (IS_TIM_CLOCK_DIVISION_INSTANCE(TIMx))
 8001766:	687b      	ldr	r3, [r7, #4]
 8001768:	4a1a      	ldr	r2, [pc, #104]	; (80017d4 <TIM_Base_SetConfig+0xa8>)
 800176a:	4293      	cmp	r3, r2
 800176c:	d007      	beq.n	800177e <TIM_Base_SetConfig+0x52>
 800176e:	687b      	ldr	r3, [r7, #4]
 8001770:	f1b3 4f80 	cmp.w	r3, #1073741824	; 0x40000000
 8001774:	d003      	beq.n	800177e <TIM_Base_SetConfig+0x52>
 8001776:	687b      	ldr	r3, [r7, #4]
 8001778:	4a17      	ldr	r2, [pc, #92]	; (80017d8 <TIM_Base_SetConfig+0xac>)
 800177a:	4293      	cmp	r3, r2
 800177c:	d108      	bne.n	8001790 <TIM_Base_SetConfig+0x64>
  {
    /* Set the clock division */
    tmpcr1 &= ~TIM_CR1_CKD;
 800177e:	68fb      	ldr	r3, [r7, #12]
 8001780:	f423 7340 	bic.w	r3, r3, #768	; 0x300
 8001784:	60fb      	str	r3, [r7, #12]
    tmpcr1 |= (uint32_t)Structure->ClockDivision;
 8001786:	683b      	ldr	r3, [r7, #0]
 8001788:	68db      	ldr	r3, [r3, #12]
 800178a:	68fa      	ldr	r2, [r7, #12]
 800178c:	4313      	orrs	r3, r2
 800178e:	60fb      	str	r3, [r7, #12]
  }

  /* Set the auto-reload preload */
  MODIFY_REG(tmpcr1, TIM_CR1_ARPE, Structure->AutoReloadPreload);
 8001790:	68fb      	ldr	r3, [r7, #12]
 8001792:	f023 0280 	bic.w	r2, r3, #128	; 0x80
 8001796:	683b      	ldr	r3, [r7, #0]
 8001798:	695b      	ldr	r3, [r3, #20]
 800179a:	4313      	orrs	r3, r2
 800179c:	60fb      	str	r3, [r7, #12]

  TIMx->CR1 = tmpcr1;
 800179e:	687b      	ldr	r3, [r7, #4]
 80017a0:	68fa      	ldr	r2, [r7, #12]
 80017a2:	601a      	str	r2, [r3, #0]

  /* Set the Autoreload value */
  TIMx->ARR = (uint32_t)Structure->Period ;
 80017a4:	683b      	ldr	r3, [r7, #0]
 80017a6:	689a      	ldr	r2, [r3, #8]
 80017a8:	687b      	ldr	r3, [r7, #4]
 80017aa:	62da      	str	r2, [r3, #44]	; 0x2c

  /* Set the Prescaler value */
  TIMx->PSC = Structure->Prescaler;
 80017ac:	683b      	ldr	r3, [r7, #0]
 80017ae:	681a      	ldr	r2, [r3, #0]
 80017b0:	687b      	ldr	r3, [r7, #4]
 80017b2:	629a      	str	r2, [r3, #40]	; 0x28

  if (IS_TIM_REPETITION_COUNTER_INSTANCE(TIMx))
 80017b4:	687b      	ldr	r3, [r7, #4]
 80017b6:	4a07      	ldr	r2, [pc, #28]	; (80017d4 <TIM_Base_SetConfig+0xa8>)
 80017b8:	4293      	cmp	r3, r2
 80017ba:	d103      	bne.n	80017c4 <TIM_Base_SetConfig+0x98>
  {
    /* Set the Repetition Counter value */
    TIMx->RCR = Structure->RepetitionCounter;
 80017bc:	683b      	ldr	r3, [r7, #0]
 80017be:	691a      	ldr	r2, [r3, #16]
 80017c0:	687b      	ldr	r3, [r7, #4]
 80017c2:	631a      	str	r2, [r3, #48]	; 0x30
  }

  /* Generate an update event to reload the Prescaler
     and the repetition counter (only for advanced timer) value immediately */
  TIMx->EGR = TIM_EGR_UG;
 80017c4:	687b      	ldr	r3, [r7, #4]
 80017c6:	2201      	movs	r2, #1
 80017c8:	615a      	str	r2, [r3, #20]
}
 80017ca:	bf00      	nop
 80017cc:	3714      	adds	r7, #20
 80017ce:	46bd      	mov	sp, r7
 80017d0:	bc80      	pop	{r7}
 80017d2:	4770      	bx	lr
 80017d4:	40012c00 	.word	0x40012c00
 80017d8:	40000400 	.word	0x40000400

080017dc <TIM_TI1_ConfigInputStage>:
  * @param  TIM_ICFilter Specifies the Input Capture Filter.
  *          This parameter must be a value between 0x00 and 0x0F.
  * @retval None
  */
static void TIM_TI1_ConfigInputStage(TIM_TypeDef *TIMx, uint32_t TIM_ICPolarity, uint32_t TIM_ICFilter)
{
 80017dc:	b480      	push	{r7}
 80017de:	b087      	sub	sp, #28
 80017e0:	af00      	add	r7, sp, #0
 80017e2:	60f8      	str	r0, [r7, #12]
 80017e4:	60b9      	str	r1, [r7, #8]
 80017e6:	607a      	str	r2, [r7, #4]
  uint32_t tmpccmr1;
  uint32_t tmpccer;

  /* Disable the Channel 1: Reset the CC1E Bit */
  tmpccer = TIMx->CCER;
 80017e8:	68fb      	ldr	r3, [r7, #12]
 80017ea:	6a1b      	ldr	r3, [r3, #32]
 80017ec:	617b      	str	r3, [r7, #20]
  TIMx->CCER &= ~TIM_CCER_CC1E;
 80017ee:	68fb      	ldr	r3, [r7, #12]
 80017f0:	6a1b      	ldr	r3, [r3, #32]
 80017f2:	f023 0201 	bic.w	r2, r3, #1
 80017f6:	68fb      	ldr	r3, [r7, #12]
 80017f8:	621a      	str	r2, [r3, #32]
  tmpccmr1 = TIMx->CCMR1;
 80017fa:	68fb      	ldr	r3, [r7, #12]
 80017fc:	699b      	ldr	r3, [r3, #24]
 80017fe:	613b      	str	r3, [r7, #16]

  /* Set the filter */
  tmpccmr1 &= ~TIM_CCMR1_IC1F;
 8001800:	693b      	ldr	r3, [r7, #16]
 8001802:	f023 03f0 	bic.w	r3, r3, #240	; 0xf0
 8001806:	613b      	str	r3, [r7, #16]
  tmpccmr1 |= (TIM_ICFilter << 4U);
 8001808:	687b      	ldr	r3, [r7, #4]
 800180a:	011b      	lsls	r3, r3, #4
 800180c:	693a      	ldr	r2, [r7, #16]
 800180e:	4313      	orrs	r3, r2
 8001810:	613b      	str	r3, [r7, #16]

  /* Select the Polarity and set the CC1E Bit */
  tmpccer &= ~(TIM_CCER_CC1P | TIM_CCER_CC1NP);
 8001812:	697b      	ldr	r3, [r7, #20]
 8001814:	f023 030a 	bic.w	r3, r3, #10
 8001818:	617b      	str	r3, [r7, #20]
  tmpccer |= TIM_ICPolarity;
 800181a:	697a      	ldr	r2, [r7, #20]
 800181c:	68bb      	ldr	r3, [r7, #8]
 800181e:	4313      	orrs	r3, r2
 8001820:	617b      	str	r3, [r7, #20]

  /* Write to TIMx CCMR1 and CCER registers */
  TIMx->CCMR1 = tmpccmr1;
 8001822:	68fb      	ldr	r3, [r7, #12]
 8001824:	693a      	ldr	r2, [r7, #16]
 8001826:	619a      	str	r2, [r3, #24]
  TIMx->CCER = tmpccer;
 8001828:	68fb      	ldr	r3, [r7, #12]
 800182a:	697a      	ldr	r2, [r7, #20]
 800182c:	621a      	str	r2, [r3, #32]
}
 800182e:	bf00      	nop
 8001830:	371c      	adds	r7, #28
 8001832:	46bd      	mov	sp, r7
 8001834:	bc80      	pop	{r7}
 8001836:	4770      	bx	lr

08001838 <TIM_TI2_ConfigInputStage>:
  * @param  TIM_ICFilter Specifies the Input Capture Filter.
  *          This parameter must be a value between 0x00 and 0x0F.
  * @retval None
  */
static void TIM_TI2_ConfigInputStage(TIM_TypeDef *TIMx, uint32_t TIM_ICPolarity, uint32_t TIM_ICFilter)
{
 8001838:	b480      	push	{r7}
 800183a:	b087      	sub	sp, #28
 800183c:	af00      	add	r7, sp, #0
 800183e:	60f8      	str	r0, [r7, #12]
 8001840:	60b9      	str	r1, [r7, #8]
 8001842:	607a      	str	r2, [r7, #4]
  uint32_t tmpccmr1;
  uint32_t tmpccer;

  /* Disable the Channel 2: Reset the CC2E Bit */
  tmpccer = TIMx->CCER;
 8001844:	68fb      	ldr	r3, [r7, #12]
 8001846:	6a1b      	ldr	r3, [r3, #32]
 8001848:	617b      	str	r3, [r7, #20]
  TIMx->CCER &= ~TIM_CCER_CC2E;
 800184a:	68fb      	ldr	r3, [r7, #12]
 800184c:	6a1b      	ldr	r3, [r3, #32]
 800184e:	f023 0210 	bic.w	r2, r3, #16
 8001852:	68fb      	ldr	r3, [r7, #12]
 8001854:	621a      	str	r2, [r3, #32]
  tmpccmr1 = TIMx->CCMR1;
 8001856:	68fb      	ldr	r3, [r7, #12]
 8001858:	699b      	ldr	r3, [r3, #24]
 800185a:	613b      	str	r3, [r7, #16]

  /* Set the filter */
  tmpccmr1 &= ~TIM_CCMR1_IC2F;
 800185c:	693b      	ldr	r3, [r7, #16]
 800185e:	f423 4370 	bic.w	r3, r3, #61440	; 0xf000
 8001862:	613b      	str	r3, [r7, #16]
  tmpccmr1 |= (TIM_ICFilter << 12U);
 8001864:	687b      	ldr	r3, [r7, #4]
 8001866:	031b      	lsls	r3, r3, #12
 8001868:	693a      	ldr	r2, [r7, #16]
 800186a:	4313      	orrs	r3, r2
 800186c:	613b      	str	r3, [r7, #16]

  /* Select the Polarity and set the CC2E Bit */
  tmpccer &= ~(TIM_CCER_CC2P | TIM_CCER_CC2NP);
 800186e:	697b      	ldr	r3, [r7, #20]
 8001870:	f023 03a0 	bic.w	r3, r3, #160	; 0xa0
 8001874:	617b      	str	r3, [r7, #20]
  tmpccer |= (TIM_ICPolarity << 4U);
 8001876:	68bb      	ldr	r3, [r7, #8]
 8001878:	011b      	lsls	r3, r3, #4
 800187a:	697a      	ldr	r2, [r7, #20]
 800187c:	4313      	orrs	r3, r2
 800187e:	617b      	str	r3, [r7, #20]

  /* Write to TIMx CCMR1 and CCER registers */
  TIMx->CCMR1 = tmpccmr1 ;
 8001880:	68fb      	ldr	r3, [r7, #12]
 8001882:	693a      	ldr	r2, [r7, #16]
 8001884:	619a      	str	r2, [r3, #24]
  TIMx->CCER = tmpccer;
 8001886:	68fb      	ldr	r3, [r7, #12]
 8001888:	697a      	ldr	r2, [r7, #20]
 800188a:	621a      	str	r2, [r3, #32]
}
 800188c:	bf00      	nop
 800188e:	371c      	adds	r7, #28
 8001890:	46bd      	mov	sp, r7
 8001892:	bc80      	pop	{r7}
 8001894:	4770      	bx	lr

08001896 <TIM_ITRx_SetConfig>:
  *            @arg TIM_TS_TI2FP2: Filtered Timer Input 2
  *            @arg TIM_TS_ETRF: External Trigger input
  * @retval None
  */
static void TIM_ITRx_SetConfig(TIM_TypeDef *TIMx, uint32_t InputTriggerSource)
{
 8001896:	b480      	push	{r7}
 8001898:	b085      	sub	sp, #20
 800189a:	af00      	add	r7, sp, #0
 800189c:	6078      	str	r0, [r7, #4]
 800189e:	6039      	str	r1, [r7, #0]
  uint32_t tmpsmcr;

  /* Get the TIMx SMCR register value */
  tmpsmcr = TIMx->SMCR;
 80018a0:	687b      	ldr	r3, [r7, #4]
 80018a2:	689b      	ldr	r3, [r3, #8]
 80018a4:	60fb      	str	r3, [r7, #12]
  /* Reset the TS Bits */
  tmpsmcr &= ~TIM_SMCR_TS;
 80018a6:	68fb      	ldr	r3, [r7, #12]
 80018a8:	f023 0370 	bic.w	r3, r3, #112	; 0x70
 80018ac:	60fb      	str	r3, [r7, #12]
  /* Set the Input Trigger source and the slave mode*/
  tmpsmcr |= (InputTriggerSource | TIM_SLAVEMODE_EXTERNAL1);
 80018ae:	683a      	ldr	r2, [r7, #0]
 80018b0:	68fb      	ldr	r3, [r7, #12]
 80018b2:	4313      	orrs	r3, r2
 80018b4:	f043 0307 	orr.w	r3, r3, #7
 80018b8:	60fb      	str	r3, [r7, #12]
  /* Write to TIMx SMCR */
  TIMx->SMCR = tmpsmcr;
 80018ba:	687b      	ldr	r3, [r7, #4]
 80018bc:	68fa      	ldr	r2, [r7, #12]
 80018be:	609a      	str	r2, [r3, #8]
}
 80018c0:	bf00      	nop
 80018c2:	3714      	adds	r7, #20
 80018c4:	46bd      	mov	sp, r7
 80018c6:	bc80      	pop	{r7}
 80018c8:	4770      	bx	lr

080018ca <TIM_ETR_SetConfig>:
  *          This parameter must be a value between 0x00 and 0x0F
  * @retval None
  */
void TIM_ETR_SetConfig(TIM_TypeDef *TIMx, uint32_t TIM_ExtTRGPrescaler,
                       uint32_t TIM_ExtTRGPolarity, uint32_t ExtTRGFilter)
{
 80018ca:	b480      	push	{r7}
 80018cc:	b087      	sub	sp, #28
 80018ce:	af00      	add	r7, sp, #0
 80018d0:	60f8      	str	r0, [r7, #12]
 80018d2:	60b9      	str	r1, [r7, #8]
 80018d4:	607a      	str	r2, [r7, #4]
 80018d6:	603b      	str	r3, [r7, #0]
  uint32_t tmpsmcr;

  tmpsmcr = TIMx->SMCR;
 80018d8:	68fb      	ldr	r3, [r7, #12]
 80018da:	689b      	ldr	r3, [r3, #8]
 80018dc:	617b      	str	r3, [r7, #20]

  /* Reset the ETR Bits */
  tmpsmcr &= ~(TIM_SMCR_ETF | TIM_SMCR_ETPS | TIM_SMCR_ECE | TIM_SMCR_ETP);
 80018de:	697b      	ldr	r3, [r7, #20]
 80018e0:	f423 437f 	bic.w	r3, r3, #65280	; 0xff00
 80018e4:	617b      	str	r3, [r7, #20]

  /* Set the Prescaler, the Filter value and the Polarity */
  tmpsmcr |= (uint32_t)(TIM_ExtTRGPrescaler | (TIM_ExtTRGPolarity | (ExtTRGFilter << 8U)));
 80018e6:	683b      	ldr	r3, [r7, #0]
 80018e8:	021a      	lsls	r2, r3, #8
 80018ea:	687b      	ldr	r3, [r7, #4]
 80018ec:	431a      	orrs	r2, r3
 80018ee:	68bb      	ldr	r3, [r7, #8]
 80018f0:	4313      	orrs	r3, r2
 80018f2:	697a      	ldr	r2, [r7, #20]
 80018f4:	4313      	orrs	r3, r2
 80018f6:	617b      	str	r3, [r7, #20]

  /* Write to TIMx SMCR */
  TIMx->SMCR = tmpsmcr;
 80018f8:	68fb      	ldr	r3, [r7, #12]
 80018fa:	697a      	ldr	r2, [r7, #20]
 80018fc:	609a      	str	r2, [r3, #8]
}
 80018fe:	bf00      	nop
 8001900:	371c      	adds	r7, #28
 8001902:	46bd      	mov	sp, r7
 8001904:	bc80      	pop	{r7}
 8001906:	4770      	bx	lr

08001908 <HAL_TIMEx_MasterConfigSynchronization>:
  *         mode.
  * @retval HAL status
  */
HAL_StatusTypeDef HAL_TIMEx_MasterConfigSynchronization(TIM_HandleTypeDef *htim,
                                                        const TIM_MasterConfigTypeDef *sMasterConfig)
{
 8001908:	b480      	push	{r7}
 800190a:	b085      	sub	sp, #20
 800190c:	af00      	add	r7, sp, #0
 800190e:	6078      	str	r0, [r7, #4]
 8001910:	6039      	str	r1, [r7, #0]
  assert_param(IS_TIM_MASTER_INSTANCE(htim->Instance));
  assert_param(IS_TIM_TRGO_SOURCE(sMasterConfig->MasterOutputTrigger));
  assert_param(IS_TIM_MSM_STATE(sMasterConfig->MasterSlaveMode));

  /* Check input state */
  __HAL_LOCK(htim);
 8001912:	687b      	ldr	r3, [r7, #4]
 8001914:	f893 303c 	ldrb.w	r3, [r3, #60]	; 0x3c
 8001918:	2b01      	cmp	r3, #1
 800191a:	d101      	bne.n	8001920 <HAL_TIMEx_MasterConfigSynchronization+0x18>
 800191c:	2302      	movs	r3, #2
 800191e:	e041      	b.n	80019a4 <HAL_TIMEx_MasterConfigSynchronization+0x9c>
 8001920:	687b      	ldr	r3, [r7, #4]
 8001922:	2201      	movs	r2, #1
 8001924:	f883 203c 	strb.w	r2, [r3, #60]	; 0x3c

  /* Change the handler state */
  htim->State = HAL_TIM_STATE_BUSY;
 8001928:	687b      	ldr	r3, [r7, #4]
 800192a:	2202      	movs	r2, #2
 800192c:	f883 203d 	strb.w	r2, [r3, #61]	; 0x3d

  /* Get the TIMx CR2 register value */
  tmpcr2 = htim->Instance->CR2;
 8001930:	687b      	ldr	r3, [r7, #4]
 8001932:	681b      	ldr	r3, [r3, #0]
 8001934:	685b      	ldr	r3, [r3, #4]
 8001936:	60fb      	str	r3, [r7, #12]

  /* Get the TIMx SMCR register value */
  tmpsmcr = htim->Instance->SMCR;
 8001938:	687b      	ldr	r3, [r7, #4]
 800193a:	681b      	ldr	r3, [r3, #0]
 800193c:	689b      	ldr	r3, [r3, #8]
 800193e:	60bb      	str	r3, [r7, #8]

  /* Reset the MMS Bits */
  tmpcr2 &= ~TIM_CR2_MMS;
 8001940:	68fb      	ldr	r3, [r7, #12]
 8001942:	f023 0370 	bic.w	r3, r3, #112	; 0x70
 8001946:	60fb      	str	r3, [r7, #12]
  /* Select the TRGO source */
  tmpcr2 |=  sMasterConfig->MasterOutputTrigger;
 8001948:	683b      	ldr	r3, [r7, #0]
 800194a:	681b      	ldr	r3, [r3, #0]
 800194c:	68fa      	ldr	r2, [r7, #12]
 800194e:	4313      	orrs	r3, r2
 8001950:	60fb      	str	r3, [r7, #12]

  /* Update TIMx CR2 */
  htim->Instance->CR2 = tmpcr2;
 8001952:	687b      	ldr	r3, [r7, #4]
 8001954:	681b      	ldr	r3, [r3, #0]
 8001956:	68fa      	ldr	r2, [r7, #12]
 8001958:	605a      	str	r2, [r3, #4]

  if (IS_TIM_SLAVE_INSTANCE(htim->Instance))
 800195a:	687b      	ldr	r3, [r7, #4]
 800195c:	681b      	ldr	r3, [r3, #0]
 800195e:	4a14      	ldr	r2, [pc, #80]	; (80019b0 <HAL_TIMEx_MasterConfigSynchronization+0xa8>)
 8001960:	4293      	cmp	r3, r2
 8001962:	d009      	beq.n	8001978 <HAL_TIMEx_MasterConfigSynchronization+0x70>
 8001964:	687b      	ldr	r3, [r7, #4]
 8001966:	681b      	ldr	r3, [r3, #0]
 8001968:	f1b3 4f80 	cmp.w	r3, #1073741824	; 0x40000000
 800196c:	d004      	beq.n	8001978 <HAL_TIMEx_MasterConfigSynchronization+0x70>
 800196e:	687b      	ldr	r3, [r7, #4]
 8001970:	681b      	ldr	r3, [r3, #0]
 8001972:	4a10      	ldr	r2, [pc, #64]	; (80019b4 <HAL_TIMEx_MasterConfigSynchronization+0xac>)
 8001974:	4293      	cmp	r3, r2
 8001976:	d10c      	bne.n	8001992 <HAL_TIMEx_MasterConfigSynchronization+0x8a>
  {
    /* Reset the MSM Bit */
    tmpsmcr &= ~TIM_SMCR_MSM;
 8001978:	68bb      	ldr	r3, [r7, #8]
 800197a:	f023 0380 	bic.w	r3, r3, #128	; 0x80
 800197e:	60bb      	str	r3, [r7, #8]
    /* Set master mode */
    tmpsmcr |= sMasterConfig->MasterSlaveMode;
 8001980:	683b      	ldr	r3, [r7, #0]
 8001982:	685b      	ldr	r3, [r3, #4]
 8001984:	68ba      	ldr	r2, [r7, #8]
 8001986:	4313      	orrs	r3, r2
 8001988:	60bb      	str	r3, [r7, #8]

    /* Update TIMx SMCR */
    htim->Instance->SMCR = tmpsmcr;
 800198a:	687b      	ldr	r3, [r7, #4]
 800198c:	681b      	ldr	r3, [r3, #0]
 800198e:	68ba      	ldr	r2, [r7, #8]
 8001990:	609a      	str	r2, [r3, #8]
  }

  /* Change the htim state */
  htim->State = HAL_TIM_STATE_READY;
 8001992:	687b      	ldr	r3, [r7, #4]
 8001994:	2201      	movs	r2, #1
 8001996:	f883 203d 	strb.w	r2, [r3, #61]	; 0x3d

  __HAL_UNLOCK(htim);
 800199a:	687b      	ldr	r3, [r7, #4]
 800199c:	2200      	movs	r2, #0
 800199e:	f883 203c 	strb.w	r2, [r3, #60]	; 0x3c

  return HAL_OK;
 80019a2:	2300      	movs	r3, #0
}
 80019a4:	4618      	mov	r0, r3
 80019a6:	3714      	adds	r7, #20
 80019a8:	46bd      	mov	sp, r7
 80019aa:	bc80      	pop	{r7}
 80019ac:	4770      	bx	lr
 80019ae:	bf00      	nop
 80019b0:	40012c00 	.word	0x40012c00
 80019b4:	40000400 	.word	0x40000400

080019b8 <HAL_TIMEx_CommutCallback>:
  * @brief  Hall commutation changed callback in non-blocking mode
  * @param  htim TIM handle
  * @retval None
  */
__weak void HAL_TIMEx_CommutCallback(TIM_HandleTypeDef *htim)
{
 80019b8:	b480      	push	{r7}
 80019ba:	b083      	sub	sp, #12
 80019bc:	af00      	add	r7, sp, #0
 80019be:	6078      	str	r0, [r7, #4]
  UNUSED(htim);

  /* NOTE : This function should not be modified, when the callback is needed,
            the HAL_TIMEx_CommutCallback could be implemented in the user file
   */
}
 80019c0:	bf00      	nop
 80019c2:	370c      	adds	r7, #12
 80019c4:	46bd      	mov	sp, r7
 80019c6:	bc80      	pop	{r7}
 80019c8:	4770      	bx	lr

080019ca <HAL_TIMEx_BreakCallback>:
  * @brief  Hall Break detection callback in non-blocking mode
  * @param  htim TIM handle
  * @retval None
  */
__weak void HAL_TIMEx_BreakCallback(TIM_HandleTypeDef *htim)
{
 80019ca:	b480      	push	{r7}
 80019cc:	b083      	sub	sp, #12
 80019ce:	af00      	add	r7, sp, #0
 80019d0:	6078      	str	r0, [r7, #4]
  UNUSED(htim);

  /* NOTE : This function should not be modified, when the callback is needed,
            the HAL_TIMEx_BreakCallback could be implemented in the user file
   */
}
 80019d2:	bf00      	nop
 80019d4:	370c      	adds	r7, #12
 80019d6:	46bd      	mov	sp, r7
 80019d8:	bc80      	pop	{r7}
 80019da:	4770      	bx	lr

080019dc <__libc_init_array>:
 80019dc:	b570      	push	{r4, r5, r6, lr}
 80019de:	2600      	movs	r6, #0
 80019e0:	4d0c      	ldr	r5, [pc, #48]	; (8001a14 <__libc_init_array+0x38>)
 80019e2:	4c0d      	ldr	r4, [pc, #52]	; (8001a18 <__libc_init_array+0x3c>)
 80019e4:	1b64      	subs	r4, r4, r5
 80019e6:	10a4      	asrs	r4, r4, #2
 80019e8:	42a6      	cmp	r6, r4
 80019ea:	d109      	bne.n	8001a00 <__libc_init_array+0x24>
 80019ec:	f000 f822 	bl	8001a34 <_init>
 80019f0:	2600      	movs	r6, #0
 80019f2:	4d0a      	ldr	r5, [pc, #40]	; (8001a1c <__libc_init_array+0x40>)
 80019f4:	4c0a      	ldr	r4, [pc, #40]	; (8001a20 <__libc_init_array+0x44>)
 80019f6:	1b64      	subs	r4, r4, r5
 80019f8:	10a4      	asrs	r4, r4, #2
 80019fa:	42a6      	cmp	r6, r4
 80019fc:	d105      	bne.n	8001a0a <__libc_init_array+0x2e>
 80019fe:	bd70      	pop	{r4, r5, r6, pc}
 8001a00:	f855 3b04 	ldr.w	r3, [r5], #4
 8001a04:	4798      	blx	r3
 8001a06:	3601      	adds	r6, #1
 8001a08:	e7ee      	b.n	80019e8 <__libc_init_array+0xc>
 8001a0a:	f855 3b04 	ldr.w	r3, [r5], #4
 8001a0e:	4798      	blx	r3
 8001a10:	3601      	adds	r6, #1
 8001a12:	e7f2      	b.n	80019fa <__libc_init_array+0x1e>
 8001a14:	08001a70 	.word	0x08001a70
 8001a18:	08001a70 	.word	0x08001a70
 8001a1c:	08001a70 	.word	0x08001a70
 8001a20:	08001a74 	.word	0x08001a74

08001a24 <memset>:
 8001a24:	4603      	mov	r3, r0
 8001a26:	4402      	add	r2, r0
 8001a28:	4293      	cmp	r3, r2
 8001a2a:	d100      	bne.n	8001a2e <memset+0xa>
 8001a2c:	4770      	bx	lr
 8001a2e:	f803 1b01 	strb.w	r1, [r3], #1
 8001a32:	e7f9      	b.n	8001a28 <memset+0x4>

08001a34 <_init>:
 8001a34:	b5f8      	push	{r3, r4, r5, r6, r7, lr}
 8001a36:	bf00      	nop
 8001a38:	bcf8      	pop	{r3, r4, r5, r6, r7}
 8001a3a:	bc08      	pop	{r3}
 8001a3c:	469e      	mov	lr, r3
 8001a3e:	4770      	bx	lr

08001a40 <_fini>:
 8001a40:	b5f8      	push	{r3, r4, r5, r6, r7, lr}
 8001a42:	bf00      	nop
 8001a44:	bcf8      	pop	{r3, r4, r5, r6, r7}
 8001a46:	bc08      	pop	{r3}
 8001a48:	469e      	mov	lr, r3
 8001a4a:	4770      	bx	lr
